; Listing generated by Microsoft (R) Optimizing Compiler Version 19.34.31937.0 

	TTL	C:\KPO\lab01\lab01\arm64\Debug\lab01.obj
	;ARM64

	AREA	|.drectve|, DRECTVE


	AREA	|.msvcjmc|, DATA
|__60EC8903_lab01@pch| DCB 0x1
|__BB16330F_corecrt_math@h| DCB 0x1
|__18E32B2B_istream| DCB 0x1
|__683678DE_system_error| DCB 0x1
|__D4D77502_stdexcept| DCB 0x1
|__C6C1D614_xlocinfo| DCB 0x1
|__D94835DC_typeinfo| DCB 0x1
|__FA9853E6_vcruntime_typeinfo@h| DCB 0x1
|__7FAB093C_stdafx@cpp| DCB 0x1
|__0F5D4878_memory| DCB 0x1
|__5D994F5F_exception| DCB 0x1
|__1BEF3287_vcruntime_exception@h| DCB 0x1
|__B3F344F6_limits| DCB 0x1
|__A95B55BB_utility| DCB 0x1
|__C3CE3678_xmemory| DCB 0x1
|__E81B5085_vcruntime_new@h| DCB 0x1
|__A997C6C5_xutility| DCB 0x1
|__87BD5CA6_type_traits| DCB 0x1
|__5E44C2A9_xstddef| DCB 0x1
|__D677CDBE_streambuf| DCB 0x1
|__B71DB0E4_xstring| DCB 0x1
|__F6A4A2C2_xlocnum| DCB 0x1
|__868129B3_ios| DCB 0x1
|__B83B7185_iterator| DCB 0x1
|__FF24A107_xiosbase| DCB 0x1
|__6823C4D5_xlocale| DCB 0x1
|__23181F77_xfacet| DCB 0x1
|__7B331E11_ostream| DCB 0x1
|__C1EC35D3_stdio@h| DCB 0x1
|__44420885_corecrt_stdio_config@h| DCB 0x1
|__5FDCC71F_lab01@cpp| DCB 0x1
|__F2484EC6_stdafx@h| DCB 0x1
	EXPORT	|?__empty_global_delete@@YAXPEAX@Z|	; __empty_global_delete
	EXPORT	|?__empty_global_delete@@YAXPEAX_K@Z|	; __empty_global_delete
	EXPORT	|__local_stdio_scanf_options|
	EXPORT	|_vsscanf_s_l|
	EXPORT	|vsscanf_s|
	EXPORT	|sscanf_s|
	EXPORT	|??0exception@std@@QEAA@QEBDH@Z|	; std::exception::exception
	EXPORT	|??0exception@std@@QEAA@AEBV01@@Z|	; std::exception::exception
	EXPORT	|??1exception@std@@UEAA@XZ|		; std::exception::~exception
	EXPORT	|?what@exception@std@@UEBAPEBDXZ|	; std::exception::what
	EXPORT	|??_Gexception@std@@UEAAPEAXI@Z|	; std::exception::`scalar deleting destructor'
	EXPORT	|?length@?$_Narrow_char_traits@DH@std@@SA_KQEBD@Z| ; std::_Narrow_char_traits<char,int>::length
	EXPORT	|?to_char_type@?$_Narrow_char_traits@DH@std@@SADAEBH@Z| ; std::_Narrow_char_traits<char,int>::to_char_type
	EXPORT	|?eq_int_type@?$_Narrow_char_traits@DH@std@@SA_NAEBH0@Z| ; std::_Narrow_char_traits<char,int>::eq_int_type
	EXPORT	|?eof@?$_Narrow_char_traits@DH@std@@SAHXZ| ; std::_Narrow_char_traits<char,int>::eof
	EXPORT	|??0bad_cast@std@@QEAA@XZ|		; std::bad_cast::bad_cast
	EXPORT	|??1bad_cast@std@@UEAA@XZ|		; std::bad_cast::~bad_cast
	EXPORT	|??0bad_cast@std@@QEAA@AEBV01@@Z|	; std::bad_cast::bad_cast
	EXPORT	|??_Gbad_cast@std@@UEAAPEAXI@Z|		; std::bad_cast::`scalar deleting destructor'
	EXPORT	|?_Throw_bad_cast@std@@YAXXZ|		; std::_Throw_bad_cast
	EXPORT	|??1locale@std@@QEAA@XZ|		; std::locale::~locale
	EXPORT	|?_Getfacet@locale@std@@QEBAPEBVfacet@12@_K@Z| ; std::locale::_Getfacet
	EXPORT	|??R?$default_delete@V_Facet_base@std@@@std@@QEBAXPEAV_Facet_base@1@@Z| ; std::default_delete<std::_Facet_base>::operator()
	EXPORT	|??1?$unique_ptr@V_Facet_base@std@@U?$default_delete@V_Facet_base@std@@@2@@std@@QEAA@XZ| ; std::unique_ptr<std::_Facet_base,std::default_delete<std::_Facet_base> >::~unique_ptr<std::_Facet_base,std::default_delete<std::_Facet_base> >
	EXPORT	|?release@?$unique_ptr@V_Facet_base@std@@U?$default_delete@V_Facet_base@std@@@2@@std@@QEAAPEAV_Facet_base@2@XZ| ; std::unique_ptr<std::_Facet_base,std::default_delete<std::_Facet_base> >::release
	EXPORT	|?_Get_first@?$_Compressed_pair@U?$default_delete@V_Facet_base@std@@@std@@PEAV_Facet_base@2@$00@std@@QEAAAEAU?$default_delete@V_Facet_base@std@@@2@XZ| ; std::_Compressed_pair<std::default_delete<std::_Facet_base>,std::_Facet_base *,1>::_Get_first
	EXPORT	|?__autoclassinit2@?$unique_ptr@V_Facet_base@std@@U?$default_delete@V_Facet_base@std@@@2@@std@@QEAAX_K@Z| ; std::unique_ptr<std::_Facet_base,std::default_delete<std::_Facet_base> >::__autoclassinit2
	EXPORT	|??$use_facet@V?$ctype@D@std@@@std@@YAAEBV?$ctype@D@0@AEBVlocale@0@@Z| ; std::use_facet<std::ctype<char> >
	EXPORT	|??$?0U?$default_delete@V_Facet_base@std@@@std@@$0A@@?$unique_ptr@V_Facet_base@std@@U?$default_delete@V_Facet_base@std@@@2@@std@@QEAA@PEAV_Facet_base@1@@Z| ; std::unique_ptr<std::_Facet_base,std::default_delete<std::_Facet_base> >::unique_ptr<std::_Facet_base,std::default_delete<std::_Facet_base> ><std::default_delete<std::_Facet_base>,0>
	EXPORT	|??$exchange@PEAV_Facet_base@std@@$$T@std@@YAPEAV_Facet_base@0@AEAPEAV10@$$QEA$$T@Z| ; std::exchange<std::_Facet_base *,std::nullptr_t>
	EXPORT	|??$?0AEAPEAV_Facet_base@std@@@?$_Compressed_pair@U?$default_delete@V_Facet_base@std@@@std@@PEAV_Facet_base@2@$00@std@@QEAA@U_Zero_then_variadic_args_t@1@AEAPEAV_Facet_base@1@@Z| ; std::_Compressed_pair<std::default_delete<std::_Facet_base>,std::_Facet_base *,1>::_Compressed_pair<std::default_delete<std::_Facet_base>,std::_Facet_base *,1><std::_Facet_base * &>
	EXPORT	|??$forward@AEAPEAV_Facet_base@std@@@std@@YAAEAPEAV_Facet_base@0@AEAPEAV10@@Z| ; std::forward<std::_Facet_base * &>
	EXPORT	|main|
	EXPORT	|??$?5DU?$char_traits@D@std@@@std@@YAAEAV?$basic_istream@DU?$char_traits@D@std@@@0@AEAV10@PEAD@Z| ; std::operator>><char,std::char_traits<char> >
	EXPORT	|??$?6U?$char_traits@D@std@@@std@@YAAEAV?$basic_ostream@DU?$char_traits@D@std@@@0@AEAV10@PEBD@Z| ; std::operator<<<std::char_traits<char> >
	EXPORT	|??$endl@DU?$char_traits@D@std@@@std@@YAAEAV?$basic_ostream@DU?$char_traits@D@std@@@0@AEAV10@@Z| ; std::endl<char,std::char_traits<char> >
	EXPORT	|??0_Sentry_base@?$basic_ostream@DU?$char_traits@D@std@@@std@@QEAA@AEAV12@@Z| ; std::basic_ostream<char,std::char_traits<char> >::_Sentry_base::_Sentry_base
	EXPORT	|??1_Sentry_base@?$basic_ostream@DU?$char_traits@D@std@@@std@@QEAA@XZ| ; std::basic_ostream<char,std::char_traits<char> >::_Sentry_base::~_Sentry_base
	EXPORT	|??0sentry@?$basic_ostream@DU?$char_traits@D@std@@@std@@QEAA@AEAV12@@Z| ; std::basic_ostream<char,std::char_traits<char> >::sentry::sentry
	EXPORT	|??1sentry@?$basic_ostream@DU?$char_traits@D@std@@@std@@QEAA@XZ| ; std::basic_ostream<char,std::char_traits<char> >::sentry::~sentry
	EXPORT	|??Bsentry@?$basic_ostream@DU?$char_traits@D@std@@@std@@QEBA_NXZ| ; std::basic_ostream<char,std::char_traits<char> >::sentry::operator bool
	EXPORT	|??$_Istream_extract_into_buffer@DU?$char_traits@D@std@@@std@@YAAEAV?$basic_istream@DU?$char_traits@D@std@@@0@AEAV10@_KPEAD@Z| ; std::_Istream_extract_into_buffer<char,std::char_traits<char> >
	EXPORT	|??0_Sentry_base@?$basic_istream@DU?$char_traits@D@std@@@std@@QEAA@AEAV12@@Z| ; std::basic_istream<char,std::char_traits<char> >::_Sentry_base::_Sentry_base
	EXPORT	|??1_Sentry_base@?$basic_istream@DU?$char_traits@D@std@@@std@@QEAA@XZ| ; std::basic_istream<char,std::char_traits<char> >::_Sentry_base::~_Sentry_base
	EXPORT	|??0sentry@?$basic_istream@DU?$char_traits@D@std@@@std@@QEAA@AEAV12@_N@Z| ; std::basic_istream<char,std::char_traits<char> >::sentry::sentry
	EXPORT	|??Bsentry@?$basic_istream@DU?$char_traits@D@std@@@std@@QEBA_NXZ| ; std::basic_istream<char,std::char_traits<char> >::sentry::operator bool
	EXPORT	|??1sentry@?$basic_istream@DU?$char_traits@D@std@@@std@@QEAA@XZ| ; std::basic_istream<char,std::char_traits<char> >::sentry::~sentry
	EXPORT	|__JustMyCode_Default|
	EXPORT	|?_OptionsStorage@?1??__local_stdio_scanf_options@@9@4_KA| [ DATA ] ; `__local_stdio_scanf_options'::`2'::_OptionsStorage
	EXPORT	|??_7exception@std@@6B@| [ DATA ]	; std::exception::`vftable'
	EXPORT	|??_C@_0BC@EOODALEL@Unknown?5exception@| [ DATA ] ; `string'
	EXPORT	|??_R0?AVexception@std@@@8| [ DATA ]	; std::exception `RTTI Type Descriptor'
	EXPORT	|_CT??_R0?AVexception@std@@@8??0exception@std@@QEAA@AEBV01@@Z24| [ DATA ]
	EXPORT	|??_7bad_cast@std@@6B@| [ DATA ]	; std::bad_cast::`vftable'
	EXPORT	|??_C@_08EPJLHIJG@bad?5cast@| [ DATA ]	; `string'
	EXPORT	|_TI2?AVbad_cast@std@@| [ DATA ]
	EXPORT	|_CTA2?AVbad_cast@std@@| [ DATA ]
	EXPORT	|??_R0?AVbad_cast@std@@@8| [ DATA ]	; std::bad_cast `RTTI Type Descriptor'
	EXPORT	|_CT??_R0?AVbad_cast@std@@@8??0bad_cast@std@@QEAA@AEBV01@@Z24| [ DATA ]
	EXPORT	|?_Psave@?$_Facetptr@V?$ctype@D@std@@@std@@2PEBVfacet@locale@2@EB| [ DATA ] ; std::_Facetptr<std::ctype<char> >::_Psave
	EXPORT	|??_R4exception@std@@6B@| [ DATA ]	; std::exception::`RTTI Complete Object Locator'
	EXPORT	|??_R3exception@std@@8| [ DATA ]	; std::exception::`RTTI Class Hierarchy Descriptor'
	EXPORT	|??_R2exception@std@@8| [ DATA ]	; std::exception::`RTTI Base Class Array'
	EXPORT	|??_R1A@?0A@EA@exception@std@@8| [ DATA ] ; std::exception::`RTTI Base Class Descriptor at (0,-1,0,64)'
	EXPORT	|??_R4bad_cast@std@@6B@| [ DATA ]	; std::bad_cast::`RTTI Complete Object Locator'
	EXPORT	|??_R3bad_cast@std@@8| [ DATA ]		; std::bad_cast::`RTTI Class Hierarchy Descriptor'
	EXPORT	|??_R2bad_cast@std@@8| [ DATA ]		; std::bad_cast::`RTTI Base Class Array'
	EXPORT	|??_R1A@?0A@EA@bad_cast@std@@8| [ DATA ] ; std::bad_cast::`RTTI Base Class Descriptor at (0,-1,0,64)'
	EXPORT	|??_C@_07PEAPJBGG@Russian@| [ DATA ]	; `string'
	EXPORT	|??_C@_09OMPNMEPL@?$CF2d?$CF2d?$CF4d@| [ DATA ] ; `string'
	EXPORT	|??_C@_05KKCIMGE@error@| [ DATA ]	; `string'
	EXPORT	|??_C@_05PDJBBECF@pause@| [ DATA ]	; `string'
	EXPORT	|??_C@_0P@KPEAGGJF@?C?n?d?5?b?h?q?n?j?n?q?m?$PL?i@| [ DATA ] ; `string'
	EXPORT	|??_C@_0BC@GEBLIKEH@?C?n?d?5?m?e?5?b?h?q?n?j?n?q?m?$PL?i@| [ DATA ] ; `string'
	EXPORT	|??_C@_0BD@IKDKPIAI@?O?n?p?$PP?d?j?n?b?$PL?i?5?m?n?l?e?p?3?5@| [ DATA ] ; `string'
	EXPORT	|??_C@_0BI@CDMBLJHM@?B?b?e?d?h?r?e?5?d?$OA?r?s?5?p?n?f?d?e?m?h?$PP?3?5@| [ DATA ] ; `string'
	EXPORT	|??_C@_05JAEFPJHO@?5?d?m?e?i@| [ DATA ]	; `string'
	EXPORT	|??_C@_0BF@HGDDONBM@?A?k?h?f?$OA?i?x?h?i?5?d?p?5?w?e?p?e?g?3?5@| [ DATA ] ; `string'
	IMPORT	|??3@YAXPEAX_K@Z|			; operator delete
	IMPORT	|__imp_??0_Lockit@std@@QEAA@H@Z|
	IMPORT	|__imp_??1_Lockit@std@@QEAA@XZ|
	IMPORT	|__imp_system|
	IMPORT	|__imp___stdio_common_vsscanf|
	IMPORT	|strlen|
	IMPORT	|?uncaught_exception@std@@YA_NXZ|	; std::uncaught_exception
	IMPORT	|__std_exception_copy|
	IMPORT	|__std_exception_destroy|
	IMPORT	|??_Eexception@std@@UEAAPEAXI@Z|, WEAK |??_Gexception@std@@UEAAPEAXI@Z| ; std::exception::`vector deleting destructor', std::exception::`scalar deleting destructor'
	IMPORT	|??_Ebad_cast@std@@UEAAPEAXI@Z|, WEAK |??_Gbad_cast@std@@UEAAPEAXI@Z| ; std::bad_cast::`vector deleting destructor', std::bad_cast::`scalar deleting destructor'
	IMPORT	|?_Facet_Register@std@@YAXPEAV_Facet_base@1@@Z| ; std::_Facet_Register
	IMPORT	|__imp_setlocale|
	IMPORT	|__imp_??Bid@locale@std@@QEAA_KXZ|
	IMPORT	|?_Getgloballocale@locale@std@@CAPEAV_Locimp@12@XZ| ; std::locale::_Getgloballocale
	IMPORT	|__imp_?is@?$ctype@D@std@@QEBA_NFD@Z|
	IMPORT	|__imp_?_Getcat@?$ctype@D@std@@SA_KPEAPEBVfacet@locale@2@PEBV42@@Z|
	IMPORT	|__imp_?good@ios_base@std@@QEBA_NXZ|
	IMPORT	|__imp_?flags@ios_base@std@@QEBAHXZ|
	IMPORT	|__imp_?width@ios_base@std@@QEBA_JXZ|
	IMPORT	|__imp_?width@ios_base@std@@QEAA_J_J@Z|
	IMPORT	|__imp_?getloc@ios_base@std@@QEBA?AVlocale@2@XZ|
	IMPORT	|__imp_?sgetc@?$basic_streambuf@DU?$char_traits@D@std@@@std@@QEAAHXZ|
	IMPORT	|__imp_?snextc@?$basic_streambuf@DU?$char_traits@D@std@@@std@@QEAAHXZ|
	IMPORT	|__imp_?sputc@?$basic_streambuf@DU?$char_traits@D@std@@@std@@QEAAHD@Z|
	IMPORT	|__imp_?sputn@?$basic_streambuf@DU?$char_traits@D@std@@@std@@QEAA_JPEBD_J@Z|
	IMPORT	|__imp_?setstate@?$basic_ios@DU?$char_traits@D@std@@@std@@QEAAXH_N@Z|
	IMPORT	|__imp_?tie@?$basic_ios@DU?$char_traits@D@std@@@std@@QEBAPEAV?$basic_ostream@DU?$char_traits@D@std@@@2@XZ|
	IMPORT	|__imp_?rdbuf@?$basic_ios@DU?$char_traits@D@std@@@std@@QEBAPEAV?$basic_streambuf@DU?$char_traits@D@std@@@2@XZ|
	IMPORT	|__imp_?fill@?$basic_ios@DU?$char_traits@D@std@@@std@@QEBADXZ|
	IMPORT	|__imp_?widen@?$basic_ios@DU?$char_traits@D@std@@@std@@QEBADD@Z|
	IMPORT	|__imp_?_Osfx@?$basic_ostream@DU?$char_traits@D@std@@@std@@QEAAXXZ|
	IMPORT	|__imp_??6?$basic_ostream@DU?$char_traits@D@std@@@std@@QEAAAEAV01@P6AAEAV01@AEAV01@@Z@Z|
	IMPORT	|__imp_??6?$basic_ostream@DU?$char_traits@D@std@@@std@@QEAAAEAV01@H@Z|
	IMPORT	|__imp_?put@?$basic_ostream@DU?$char_traits@D@std@@@std@@QEAAAEAV12@D@Z|
	IMPORT	|__imp_?flush@?$basic_ostream@DU?$char_traits@D@std@@@std@@QEAAAEAV12@XZ|
	IMPORT	|__imp_?_Ipfx@?$basic_istream@DU?$char_traits@D@std@@@std@@QEAA_N_N@Z|
	IMPORT	|?leap@@YA_NH@Z|			; leap
	IMPORT	|?numOfDay@@YAHHH_N@Z|			; numOfDay
	IMPORT	|_CxxThrowException|
	IMPORT	|_RTC_CheckStackVars|
	IMPORT	|_RTC_InitBase|
	IMPORT	|_RTC_Shutdown|
	IMPORT	|__CheckForDebuggerJustMyCode|
	IMPORT	|__CxxFrameHandler3|
	IMPORT	|__GSHandlerCheck|
	IMPORT	|__GSHandlerCheck_EH|
	IMPORT	|__RTC_memset|
	IMPORT	|__security_pop_cookie|
	IMPORT	|__security_push_cookie|
	IMPORT	|memset|
	IMPORT	|??_7type_info@@6B@|			; type_info::`vftable'
	IMPORT	|__imp_?id@?$ctype@D@std@@2V0locale@2@A|
	IMPORT	|__imp_?cin@std@@3V?$basic_istream@DU?$char_traits@D@std@@@1@A|
	IMPORT	|__imp_?cout@std@@3V?$basic_ostream@DU?$char_traits@D@std@@@1@A|

	AREA	|.bss|, NOINIT
|?_OptionsStorage@?1??__local_stdio_scanf_options@@9@4_KA| % 0x8 ; `__local_stdio_scanf_options'::`2'::_OptionsStorage

	AREA	|.bss|, NOINIT
|?_Psave@?$_Facetptr@V?$ctype@D@std@@@std@@2PEBVfacet@locale@2@EB| % 0x8 ; std::_Facetptr<std::ctype<char> >::_Psave

	AREA	|.pdata|, PDATA
|$pdata$?__empty_global_delete@@YAXPEAX@Z| DCD |$LN3|
	DCD	|$unwind$?__empty_global_delete@@YAXPEAX@Z|

	AREA	|.pdata|, PDATA
|$pdata$?__empty_global_delete@@YAXPEAX_K@Z| DCD |$LN3|
	DCD	|$unwind$?__empty_global_delete@@YAXPEAX_K@Z|

	AREA	|.pdata|, PDATA
|$pdata$__local_stdio_scanf_options| DCD |$LN3|
	DCD	|$unwind$__local_stdio_scanf_options|

	AREA	|.pdata|, PDATA
|$pdata$_vsscanf_s_l| DCD |$LN3|
	DCD	|$unwind$_vsscanf_s_l|

	AREA	|.pdata|, PDATA
|$pdata$vsscanf_s| DCD |$LN3|
	DCD	|$unwind$vsscanf_s|

	AREA	|.pdata|, PDATA
|$pdata$sscanf_s| DCD |$LN3|
	DCD	|$unwind$sscanf_s|

	AREA	|.pdata|, PDATA
|$pdata$??0exception@std@@QEAA@QEBDH@Z| DCD |$LN3|
	DCD	|$unwind$??0exception@std@@QEAA@QEBDH@Z|

	AREA	|.pdata|, PDATA
|$pdata$??0exception@std@@QEAA@AEBV01@@Z| DCD |$LN3|
	DCD	|$unwind$??0exception@std@@QEAA@AEBV01@@Z|

	AREA	|.pdata|, PDATA
|$pdata$??1exception@std@@UEAA@XZ| DCD |$LN3|
	DCD	|$unwind$??1exception@std@@UEAA@XZ|

	AREA	|.pdata|, PDATA
|$pdata$?what@exception@std@@UEBAPEBDXZ| DCD |$LN5|
	DCD	|$unwind$?what@exception@std@@UEBAPEBDXZ|

	AREA	|.pdata|, PDATA
|$pdata$??_Gexception@std@@UEAAPEAXI@Z| DCD |$LN4|
	DCD	|$unwind$??_Gexception@std@@UEAAPEAXI@Z|

	AREA	|.pdata|, PDATA
|$pdata$?length@?$_Narrow_char_traits@DH@std@@SA_KQEBD@Z| DCD |$LN3|
	DCD	|$unwind$?length@?$_Narrow_char_traits@DH@std@@SA_KQEBD@Z|

	AREA	|.pdata|, PDATA
|$pdata$?to_char_type@?$_Narrow_char_traits@DH@std@@SADAEBH@Z| DCD |$LN3|
	DCD	|$unwind$?to_char_type@?$_Narrow_char_traits@DH@std@@SADAEBH@Z|

	AREA	|.pdata|, PDATA
|$pdata$?eq_int_type@?$_Narrow_char_traits@DH@std@@SA_NAEBH0@Z| DCD |$LN5|
	DCD	|$unwind$?eq_int_type@?$_Narrow_char_traits@DH@std@@SA_NAEBH0@Z|

	AREA	|.pdata|, PDATA
|$pdata$?eof@?$_Narrow_char_traits@DH@std@@SAHXZ| DCD |$LN3|
	DCD	|$unwind$?eof@?$_Narrow_char_traits@DH@std@@SAHXZ|

	AREA	|.pdata|, PDATA
|$pdata$??0bad_cast@std@@QEAA@XZ| DCD |$LN3|
	DCD	|$unwind$??0bad_cast@std@@QEAA@XZ|

	AREA	|.pdata|, PDATA
|$pdata$??1bad_cast@std@@UEAA@XZ| DCD |$LN3|
	DCD	|$unwind$??1bad_cast@std@@UEAA@XZ|

	AREA	|.pdata|, PDATA
|$pdata$??0bad_cast@std@@QEAA@AEBV01@@Z| DCD |$LN3|
	DCD	|$unwind$??0bad_cast@std@@QEAA@AEBV01@@Z|

	AREA	|.pdata|, PDATA
|$pdata$??_Gbad_cast@std@@UEAAPEAXI@Z| DCD |$LN4|
	DCD	|$unwind$??_Gbad_cast@std@@UEAAPEAXI@Z|

	AREA	|.pdata|, PDATA
|$pdata$?_Throw_bad_cast@std@@YAXXZ| DCD |$LN4|
	DCD	|$unwind$?_Throw_bad_cast@std@@YAXXZ|

	AREA	|.pdata|, PDATA
|$pdata$??1locale@std@@QEAA@XZ| DCD |$LN6|
	DCD	|$unwind$??1locale@std@@QEAA@XZ|

	AREA	|.pdata|, PDATA
|$pdata$?_Getfacet@locale@std@@QEBAPEBVfacet@12@_K@Z| DCD |$LN8|
	DCD	|$unwind$?_Getfacet@locale@std@@QEBAPEBVfacet@12@_K@Z|

	AREA	|.pdata|, PDATA
|$pdata$??R?$default_delete@V_Facet_base@std@@@std@@QEBAXPEAV_Facet_base@1@@Z| DCD |$LN5|
	DCD	|$unwind$??R?$default_delete@V_Facet_base@std@@@std@@QEBAXPEAV_Facet_base@1@@Z|

	AREA	|.pdata|, PDATA
|$pdata$??1?$unique_ptr@V_Facet_base@std@@U?$default_delete@V_Facet_base@std@@@2@@std@@QEAA@XZ| DCD |$LN4|
	DCD	|$unwind$??1?$unique_ptr@V_Facet_base@std@@U?$default_delete@V_Facet_base@std@@@2@@std@@QEAA@XZ|

	AREA	|.pdata|, PDATA
|$pdata$?release@?$unique_ptr@V_Facet_base@std@@U?$default_delete@V_Facet_base@std@@@2@@std@@QEAAPEAV_Facet_base@2@XZ| DCD |$LN3|
	DCD	|$unwind$?release@?$unique_ptr@V_Facet_base@std@@U?$default_delete@V_Facet_base@std@@@2@@std@@QEAAPEAV_Facet_base@2@XZ|

	AREA	|.pdata|, PDATA
|$pdata$?_Get_first@?$_Compressed_pair@U?$default_delete@V_Facet_base@std@@@std@@PEAV_Facet_base@2@$00@std@@QEAAAEAU?$default_delete@V_Facet_base@std@@@2@XZ| DCD |$LN3|
	DCD	|$unwind$?_Get_first@?$_Compressed_pair@U?$default_delete@V_Facet_base@std@@@std@@PEAV_Facet_base@2@$00@std@@QEAAAEAU?$default_delete@V_Facet_base@std@@@2@XZ|

	AREA	|.pdata|, PDATA
|$pdata$?__autoclassinit2@?$unique_ptr@V_Facet_base@std@@U?$default_delete@V_Facet_base@std@@@2@@std@@QEAAX_K@Z| DCD |$LN3|
	DCD	|$unwind$?__autoclassinit2@?$unique_ptr@V_Facet_base@std@@U?$default_delete@V_Facet_base@std@@@2@@std@@QEAAX_K@Z|

	AREA	|.pdata|, PDATA
|$pdata$??$use_facet@V?$ctype@D@std@@@std@@YAAEBV?$ctype@D@0@AEBVlocale@0@@Z| DCD |$LN12|
	DCD	|$unwind$??$use_facet@V?$ctype@D@std@@@std@@YAAEBV?$ctype@D@0@AEBVlocale@0@@Z|

	AREA	|.pdata|, PDATA
|$pdata$?dtor$0@?0???$use_facet@V?$ctype@D@std@@@std@@YAAEBV?$ctype@D@0@AEBVlocale@0@@Z@4HA| DCD |?dtor$0@?0???$use_facet@V?$ctype@D@std@@@std@@YAAEBV?$ctype@D@0@AEBVlocale@0@@Z@4HA|
	DCD	|$unwind$?dtor$0@?0???$use_facet@V?$ctype@D@std@@@std@@YAAEBV?$ctype@D@0@AEBVlocale@0@@Z@4HA|

	AREA	|.pdata|, PDATA
|$pdata$?dtor$1@?0???$use_facet@V?$ctype@D@std@@@std@@YAAEBV?$ctype@D@0@AEBVlocale@0@@Z@4HA| DCD |?dtor$1@?0???$use_facet@V?$ctype@D@std@@@std@@YAAEBV?$ctype@D@0@AEBVlocale@0@@Z@4HA|
	DCD	|$unwind$?dtor$1@?0???$use_facet@V?$ctype@D@std@@@std@@YAAEBV?$ctype@D@0@AEBVlocale@0@@Z@4HA|

	AREA	|.pdata|, PDATA
|$pdata$??$?0U?$default_delete@V_Facet_base@std@@@std@@$0A@@?$unique_ptr@V_Facet_base@std@@U?$default_delete@V_Facet_base@std@@@2@@std@@QEAA@PEAV_Facet_base@1@@Z| DCD |$LN3|
	DCD	|$unwind$??$?0U?$default_delete@V_Facet_base@std@@@std@@$0A@@?$unique_ptr@V_Facet_base@std@@U?$default_delete@V_Facet_base@std@@@2@@std@@QEAA@PEAV_Facet_base@1@@Z|

	AREA	|.pdata|, PDATA
|$pdata$??$exchange@PEAV_Facet_base@std@@$$T@std@@YAPEAV_Facet_base@0@AEAPEAV10@$$QEA$$T@Z| DCD |$LN3|
	DCD	|$unwind$??$exchange@PEAV_Facet_base@std@@$$T@std@@YAPEAV_Facet_base@0@AEAPEAV10@$$QEA$$T@Z|

	AREA	|.pdata|, PDATA
|$pdata$??$?0AEAPEAV_Facet_base@std@@@?$_Compressed_pair@U?$default_delete@V_Facet_base@std@@@std@@PEAV_Facet_base@2@$00@std@@QEAA@U_Zero_then_variadic_args_t@1@AEAPEAV_Facet_base@1@@Z| DCD |$LN3|
	DCD	|$unwind$??$?0AEAPEAV_Facet_base@std@@@?$_Compressed_pair@U?$default_delete@V_Facet_base@std@@@std@@PEAV_Facet_base@2@$00@std@@QEAA@U_Zero_then_variadic_args_t@1@AEAPEAV_Facet_base@1@@Z|

	AREA	|.pdata|, PDATA
|$pdata$??$forward@AEAPEAV_Facet_base@std@@@std@@YAAEAPEAV_Facet_base@0@AEAPEAV10@@Z| DCD |$LN3|
	DCD	|$unwind$??$forward@AEAPEAV_Facet_base@std@@@std@@YAAEAPEAV_Facet_base@0@AEAPEAV10@@Z|

	AREA	|.pdata|, PDATA
|$pdata$main| DCD |$LN11|
	DCD	|$unwind$main|

	AREA	|.pdata|, PDATA
|$pdata$??$?5DU?$char_traits@D@std@@@std@@YAAEAV?$basic_istream@DU?$char_traits@D@std@@@0@AEAV10@PEAD@Z| DCD |$LN3|
	DCD	|$unwind$??$?5DU?$char_traits@D@std@@@std@@YAAEAV?$basic_istream@DU?$char_traits@D@std@@@0@AEAV10@PEAD@Z|

	AREA	|.pdata|, PDATA
|$pdata$??$?6U?$char_traits@D@std@@@std@@YAAEAV?$basic_ostream@DU?$char_traits@D@std@@@0@AEAV10@PEBD@Z| DCD |$LN25|
	DCD	|$unwind$??$?6U?$char_traits@D@std@@@std@@YAAEAV?$basic_ostream@DU?$char_traits@D@std@@@0@AEAV10@PEBD@Z|

	AREA	|.pdata|, PDATA
|$pdata$?dtor$0@?0???$?6U?$char_traits@D@std@@@std@@YAAEAV?$basic_ostream@DU?$char_traits@D@std@@@0@AEAV10@PEBD@Z@4HA| DCD |?dtor$0@?0???$?6U?$char_traits@D@std@@@std@@YAAEAV?$basic_ostream@DU?$char_traits@D@std@@@0@AEAV10@PEBD@Z@4HA|
	DCD	|$unwind$?dtor$0@?0???$?6U?$char_traits@D@std@@@std@@YAAEAV?$basic_ostream@DU?$char_traits@D@std@@@0@AEAV10@PEBD@Z@4HA|

	AREA	|.pdata|, PDATA
|$pdata$?catch$1@?0???$?6U?$char_traits@D@std@@@std@@YAAEAV?$basic_ostream@DU?$char_traits@D@std@@@0@AEAV10@PEBD@Z@4HA| DCD |?catch$1@?0???$?6U?$char_traits@D@std@@@std@@YAAEAV?$basic_ostream@DU?$char_traits@D@std@@@0@AEAV10@PEBD@Z@4HA|
	DCD	|$unwind$?catch$1@?0???$?6U?$char_traits@D@std@@@std@@YAAEAV?$basic_ostream@DU?$char_traits@D@std@@@0@AEAV10@PEBD@Z@4HA|

	AREA	|.pdata|, PDATA
|$pdata$??$endl@DU?$char_traits@D@std@@@std@@YAAEAV?$basic_ostream@DU?$char_traits@D@std@@@0@AEAV10@@Z| DCD |$LN3|
	DCD	|$unwind$??$endl@DU?$char_traits@D@std@@@std@@YAAEAV?$basic_ostream@DU?$char_traits@D@std@@@0@AEAV10@@Z|

	AREA	|.pdata|, PDATA
|$pdata$??0_Sentry_base@?$basic_ostream@DU?$char_traits@D@std@@@std@@QEAA@AEAV12@@Z| DCD |$LN4|
	DCD	|$unwind$??0_Sentry_base@?$basic_ostream@DU?$char_traits@D@std@@@std@@QEAA@AEAV12@@Z|

	AREA	|.pdata|, PDATA
|$pdata$??1_Sentry_base@?$basic_ostream@DU?$char_traits@D@std@@@std@@QEAA@XZ| DCD |$LN4|
	DCD	|$unwind$??1_Sentry_base@?$basic_ostream@DU?$char_traits@D@std@@@std@@QEAA@XZ|

	AREA	|.pdata|, PDATA
|$pdata$??0sentry@?$basic_ostream@DU?$char_traits@D@std@@@std@@QEAA@AEAV12@@Z| DCD |$LN7|
	DCD	|$unwind$??0sentry@?$basic_ostream@DU?$char_traits@D@std@@@std@@QEAA@AEAV12@@Z|

	AREA	|.pdata|, PDATA
|$pdata$?dtor$0@?0???0sentry@?$basic_ostream@DU?$char_traits@D@std@@@std@@QEAA@AEAV12@@Z@4HA| DCD |?dtor$0@?0???0sentry@?$basic_ostream@DU?$char_traits@D@std@@@std@@QEAA@AEAV12@@Z@4HA|
	DCD	|$unwind$?dtor$0@?0???0sentry@?$basic_ostream@DU?$char_traits@D@std@@@std@@QEAA@AEAV12@@Z@4HA|

	AREA	|.pdata|, PDATA
|$pdata$??1sentry@?$basic_ostream@DU?$char_traits@D@std@@@std@@QEAA@XZ| DCD |$LN6|
	DCD	|$unwind$??1sentry@?$basic_ostream@DU?$char_traits@D@std@@@std@@QEAA@XZ|

	AREA	|.pdata|, PDATA
|$pdata$??Bsentry@?$basic_ostream@DU?$char_traits@D@std@@@std@@QEBA_NXZ| DCD |$LN3|
	DCD	|$unwind$??Bsentry@?$basic_ostream@DU?$char_traits@D@std@@@std@@QEBA_NXZ|

	AREA	|.pdata|, PDATA
|$pdata$??$_Istream_extract_into_buffer@DU?$char_traits@D@std@@@std@@YAAEAV?$basic_istream@DU?$char_traits@D@std@@@0@AEAV10@_KPEAD@Z| DCD |$LN22|
	DCD	|$unwind$??$_Istream_extract_into_buffer@DU?$char_traits@D@std@@@std@@YAAEAV?$basic_istream@DU?$char_traits@D@std@@@0@AEAV10@_KPEAD@Z|

	AREA	|.pdata|, PDATA
|$pdata$?dtor$0@?0???$_Istream_extract_into_buffer@DU?$char_traits@D@std@@@std@@YAAEAV?$basic_istream@DU?$char_traits@D@std@@@0@AEAV10@_KPEAD@Z@4HA| DCD |?dtor$0@?0???$_Istream_extract_into_buffer@DU?$char_traits@D@std@@@std@@YAAEAV?$basic_istream@DU?$char_traits@D@std@@@0@AEAV10@_KPEAD@Z@4HA|
	DCD	|$unwind$?dtor$0@?0???$_Istream_extract_into_buffer@DU?$char_traits@D@std@@@std@@YAAEAV?$basic_istream@DU?$char_traits@D@std@@@0@AEAV10@_KPEAD@Z@4HA|

	AREA	|.pdata|, PDATA
|$pdata$?dtor$1@?0???$_Istream_extract_into_buffer@DU?$char_traits@D@std@@@std@@YAAEAV?$basic_istream@DU?$char_traits@D@std@@@0@AEAV10@_KPEAD@Z@4HA| DCD |?dtor$1@?0???$_Istream_extract_into_buffer@DU?$char_traits@D@std@@@std@@YAAEAV?$basic_istream@DU?$char_traits@D@std@@@0@AEAV10@_KPEAD@Z@4HA|
	DCD	|$unwind$?dtor$1@?0???$_Istream_extract_into_buffer@DU?$char_traits@D@std@@@std@@YAAEAV?$basic_istream@DU?$char_traits@D@std@@@0@AEAV10@_KPEAD@Z@4HA|

	AREA	|.pdata|, PDATA
|$pdata$?catch$2@?0???$_Istream_extract_into_buffer@DU?$char_traits@D@std@@@std@@YAAEAV?$basic_istream@DU?$char_traits@D@std@@@0@AEAV10@_KPEAD@Z@4HA| DCD |?catch$2@?0???$_Istream_extract_into_buffer@DU?$char_traits@D@std@@@std@@YAAEAV?$basic_istream@DU?$char_traits@D@std@@@0@AEAV10@_KPEAD@Z@4HA|
	DCD	|$unwind$?catch$2@?0???$_Istream_extract_into_buffer@DU?$char_traits@D@std@@@std@@YAAEAV?$basic_istream@DU?$char_traits@D@std@@@0@AEAV10@_KPEAD@Z@4HA|

	AREA	|.pdata|, PDATA
|$pdata$??0_Sentry_base@?$basic_istream@DU?$char_traits@D@std@@@std@@QEAA@AEAV12@@Z| DCD |$LN4|
	DCD	|$unwind$??0_Sentry_base@?$basic_istream@DU?$char_traits@D@std@@@std@@QEAA@AEAV12@@Z|

	AREA	|.pdata|, PDATA
|$pdata$??1_Sentry_base@?$basic_istream@DU?$char_traits@D@std@@@std@@QEAA@XZ| DCD |$LN4|
	DCD	|$unwind$??1_Sentry_base@?$basic_istream@DU?$char_traits@D@std@@@std@@QEAA@XZ|

	AREA	|.pdata|, PDATA
|$pdata$??0sentry@?$basic_istream@DU?$char_traits@D@std@@@std@@QEAA@AEAV12@_N@Z| DCD |$LN4|
	DCD	|$unwind$??0sentry@?$basic_istream@DU?$char_traits@D@std@@@std@@QEAA@AEAV12@_N@Z|

	AREA	|.pdata|, PDATA
|$pdata$?dtor$0@?0???0sentry@?$basic_istream@DU?$char_traits@D@std@@@std@@QEAA@AEAV12@_N@Z@4HA| DCD |?dtor$0@?0???0sentry@?$basic_istream@DU?$char_traits@D@std@@@std@@QEAA@AEAV12@_N@Z@4HA|
	DCD	|$unwind$?dtor$0@?0???0sentry@?$basic_istream@DU?$char_traits@D@std@@@std@@QEAA@AEAV12@_N@Z@4HA|

	AREA	|.pdata|, PDATA
|$pdata$??Bsentry@?$basic_istream@DU?$char_traits@D@std@@@std@@QEBA_NXZ| DCD |$LN3|
	DCD	|$unwind$??Bsentry@?$basic_istream@DU?$char_traits@D@std@@@std@@QEBA_NXZ|

	AREA	|.pdata|, PDATA
|$pdata$??1sentry@?$basic_istream@DU?$char_traits@D@std@@@std@@QEAA@XZ| DCD |$LN3|
	DCD	|$unwind$??1sentry@?$basic_istream@DU?$char_traits@D@std@@@std@@QEAA@XZ|

	AREA	|.rtc$TMZ|, DATA, READONLY
|_RTC_Shutdown.rtc$TMZ| DCQ |_RTC_Shutdown|, 0

	AREA	|.rtc$IMZ|, DATA, READONLY
|_RTC_InitBase.rtc$IMZ| DCQ |_RTC_InitBase|, 0

	AREA	|.rdata|, DATA, READONLY
|??_C@_0BF@HGDDONBM@?A?k?h?f?$OA?i?x?h?i?5?d?p?5?w?e?p?e?g?3?5@| DCB 0xc1
	DCB	0xeb, 0xe8, 0xe6, 0xe0, 0xe9, 0xf8, 0xe8, 0xe9, " ", 0xe4
	DCB	0xf0, " ", 0xf7, 0xe5, 0xf0, 0xe5, 0xe7, ": ", 0x0 ; `string'

	AREA	|.rdata|, DATA, READONLY
|??_C@_05JAEFPJHO@?5?d?m?e?i@| DCB " ", 0xe4, 0xed, 0xe5, 0xe9, 0x0 ; `string'

	AREA	|.rdata|, DATA, READONLY
|??_C@_0BI@CDMBLJHM@?B?b?e?d?h?r?e?5?d?$OA?r?s?5?p?n?f?d?e?m?h?$PP?3?5@| DCB 0xc2
	DCB	0xe2, 0xe5, 0xe4, 0xe8, 0xf2, 0xe5, " ", 0xe4, 0xe0, 0xf2
	DCB	0xf3, " ", 0xf0, 0xee, 0xe6, 0xe4, 0xe5, 0xed, 0xe8, 0xff
	DCB	": ", 0x0				; `string'

	AREA	|.rdata|, DATA, READONLY
|??_C@_0BD@IKDKPIAI@?O?n?p?$PP?d?j?n?b?$PL?i?5?m?n?l?e?p?3?5@| DCB 0xcf, 0xee
	DCB	0xf0, 0xff, 0xe4, 0xea, 0xee, 0xe2, 0xfb, 0xe9, " ", 0xed
	DCB	0xee, 0xec, 0xe5, 0xf0, ": ", 0x0	; `string'

	AREA	|.rdata|, DATA, READONLY
|??_C@_0BC@GEBLIKEH@?C?n?d?5?m?e?5?b?h?q?n?j?n?q?m?$PL?i@| DCB 0xc3, 0xee
	DCB	0xe4, " ", 0xed, 0xe5, " ", 0xe2, 0xe8, 0xf1, 0xee, 0xea, 0xee
	DCB	0xf1, 0xed, 0xfb, 0xe9, 0x0		; `string'

	AREA	|.rdata|, DATA, READONLY
|??_C@_0P@KPEAGGJF@?C?n?d?5?b?h?q?n?j?n?q?m?$PL?i@| DCB 0xc3, 0xee, 0xe4, " "
	DCB	0xe2, 0xe8, 0xf1, 0xee, 0xea, 0xee, 0xf1, 0xed, 0xfb, 0xe9
	DCB	0x0					; `string'

	AREA	|.rdata|, DATA, READONLY
|??_C@_05PDJBBECF@pause@| DCB "pause", 0x0		; `string'

	AREA	|.rdata|, DATA, READONLY
|??_C@_05KKCIMGE@error@| DCB "error", 0x0		; `string'

	AREA	|.rdata|, DATA, READONLY
|??_C@_09OMPNMEPL@?$CF2d?$CF2d?$CF4d@| DCB "%2d%2d%4d", 0x0 ; `string'

	AREA	|.rdata|, DATA, READONLY
|??_C@_07PEAPJBGG@Russian@| DCB "Russian", 0x0		; `string'

	AREA	|.rdata$r|, DATA, READONLY
|??_R1A@?0A@EA@bad_cast@std@@8| DCD |??_R0?AVbad_cast@std@@@8| ; std::bad_cast::`RTTI Base Class Descriptor at (0,-1,0,64)'
	DCD	0x1
	DCD	0x0
	DCD	0xffffffff
	DCD	0x0
	DCD	0x40
	DCD	|??_R3bad_cast@std@@8|

	AREA	|.rdata$r|, DATA, READONLY
|??_R2bad_cast@std@@8| DCD |??_R1A@?0A@EA@bad_cast@std@@8| ; std::bad_cast::`RTTI Base Class Array'
	DCD	|??_R1A@?0A@EA@exception@std@@8|
	%	3

	AREA	|.rdata$r|, DATA, READONLY
|??_R3bad_cast@std@@8| DCD 0x0				; std::bad_cast::`RTTI Class Hierarchy Descriptor'
	DCD	0x0
	DCD	0x2
	DCD	|??_R2bad_cast@std@@8|

	AREA	|.rdata$r|, DATA, READONLY
|??_R4bad_cast@std@@6B@| DCD 0x1			; std::bad_cast::`RTTI Complete Object Locator'
	DCD	0x0
	DCD	0x0
	DCD	|??_R0?AVbad_cast@std@@@8|
	DCD	|??_R3bad_cast@std@@8|
	DCD	|??_R4bad_cast@std@@6B@|

	AREA	|.rdata$r|, DATA, READONLY
|??_R1A@?0A@EA@exception@std@@8| DCD |??_R0?AVexception@std@@@8| ; std::exception::`RTTI Base Class Descriptor at (0,-1,0,64)'
	DCD	0x0
	DCD	0x0
	DCD	0xffffffff
	DCD	0x0
	DCD	0x40
	DCD	|??_R3exception@std@@8|

	AREA	|.rdata$r|, DATA, READONLY
|??_R2exception@std@@8| DCD |??_R1A@?0A@EA@exception@std@@8| ; std::exception::`RTTI Base Class Array'
	%	3

	AREA	|.rdata$r|, DATA, READONLY
|??_R3exception@std@@8| DCD 0x0				; std::exception::`RTTI Class Hierarchy Descriptor'
	DCD	0x0
	DCD	0x1
	DCD	|??_R2exception@std@@8|

	AREA	|.rdata$r|, DATA, READONLY
|??_R4exception@std@@6B@| DCD 0x1			; std::exception::`RTTI Complete Object Locator'
	DCD	0x0
	DCD	0x0
	DCD	|??_R0?AVexception@std@@@8|
	DCD	|??_R3exception@std@@8|
	DCD	|??_R4exception@std@@6B@|

	AREA	|.xdata$x|, DATA, READONLY
|_CT??_R0?AVbad_cast@std@@@8??0bad_cast@std@@QEAA@AEBV01@@Z24| DCD 0x0
	DCD	|??_R0?AVbad_cast@std@@@8|
	DCD	0x0
	DCD	0xffffffff
	%	4
	DCD	0x18
	DCD	|??0bad_cast@std@@QEAA@AEBV01@@Z|

	AREA	|.data$r|, DATA
|??_R0?AVbad_cast@std@@@8| DCQ |??_7type_info@@6B@|, 0	; std::bad_cast `RTTI Type Descriptor'
	DCQ	0x0, 0x0				;  = 0x0000000000000000
	DCB	".?AVbad_cast@std@@", 0x0

	AREA	|.xdata$x|, DATA, READONLY
|_CTA2?AVbad_cast@std@@| DCD 0x2
	DCD	|_CT??_R0?AVbad_cast@std@@@8??0bad_cast@std@@QEAA@AEBV01@@Z24|
	DCD	|_CT??_R0?AVexception@std@@@8??0exception@std@@QEAA@AEBV01@@Z24|

	AREA	|.xdata$x|, DATA, READONLY
|_TI2?AVbad_cast@std@@| DCD 0x0
	DCD	|??1bad_cast@std@@UEAA@XZ|
	DCD	0x0
	DCD	|_CTA2?AVbad_cast@std@@|

	AREA	|.rdata|, DATA, READONLY
|??_C@_08EPJLHIJG@bad?5cast@| DCB "bad cast", 0x0	; `string'

	AREA	|.rdata|, DATA, READONLY
|??_7bad_cast@std@@6B@| DCQ |??_R4bad_cast@std@@6B@|, 0	; std::bad_cast::`vftable'
	DCQ	|??_Ebad_cast@std@@UEAAPEAXI@Z|, 0
	DCQ	|?what@exception@std@@UEBAPEBDXZ|, 0

	AREA	|.xdata$x|, DATA, READONLY
|_CT??_R0?AVexception@std@@@8??0exception@std@@QEAA@AEBV01@@Z24| DCD 0x0
	DCD	|??_R0?AVexception@std@@@8|
	DCD	0x0
	DCD	0xffffffff
	%	4
	DCD	0x18
	DCD	|??0exception@std@@QEAA@AEBV01@@Z|

	AREA	|.data$r|, DATA
|??_R0?AVexception@std@@@8| DCQ |??_7type_info@@6B@|, 0	; std::exception `RTTI Type Descriptor'
	DCQ	0x0, 0x0				;  = 0x0000000000000000
	DCB	".?AVexception@std@@", 0x0

	AREA	|.rdata|, DATA, READONLY
|??_C@_0BC@EOODALEL@Unknown?5exception@| DCB "Unknown exception", 0x0 ; `string'

	AREA	|.rdata|, DATA, READONLY
|??_7exception@std@@6B@| DCQ |??_R4exception@std@@6B@|, 0 ; std::exception::`vftable'
	DCQ	|??_Eexception@std@@UEAAPEAXI@Z|, 0
	DCQ	|?what@exception@std@@UEBAPEBDXZ|, 0

	AREA	|.xdata|, DATA
|$unwind$??1sentry@?$basic_istream@DU?$char_traits@D@std@@@std@@QEAA@XZ| DCD 0x2a200014
	DCD	0x40c842c8
	DCD	0xee3e3e3
	DCD	0xd005d2e1
	DCD	0x8542c8c4
	DCD	0xe3e3e3e4
	;Code Words[5], Epilog Start Index[8], E[1], X[0], Function Length[20]=80 bytes
	;save_regp
	;save_regp
	;nop
	;nop
	;nop
	;alloc_s
	;set_fp
	;save_reg
	;save_reg
	;save_regp
	;save_fplr_x
	;end
	;nop
	;nop
	;nop

	AREA	|.xdata|, DATA
|$unwind$??Bsentry@?$basic_istream@DU?$char_traits@D@std@@@std@@QEBA_NXZ| DCD 0x2a200018
	DCD	0x40c842c8
	DCD	0xee3e3e3
	DCD	0xd005d2e1
	DCD	0x8542c8c4
	DCD	0xe3e3e3e4
	;Code Words[5], Epilog Start Index[8], E[1], X[0], Function Length[24]=96 bytes
	;save_regp
	;save_regp
	;nop
	;nop
	;nop
	;alloc_s
	;set_fp
	;save_reg
	;save_reg
	;save_regp
	;save_fplr_x
	;end
	;nop
	;nop
	;nop

	AREA	|.xdata|, DATA
|$unwind$?dtor$0@?0???0sentry@?$basic_istream@DU?$char_traits@D@std@@@std@@QEAA@AEAV12@_N@Z@4HA| DCD 0x1020000b
	DCD	0xc4d005d2
	DCD	0xe48542c8
	;Code Words[2], Epilog Start Index[0], E[1], X[0], Function Length[11]=44 bytes
	;save_reg
	;save_reg
	;save_regp
	;save_fplr_x
	;end

	AREA	|.xdata|, DATA
|$ip2state$??0sentry@?$basic_istream@DU?$char_traits@D@std@@@std@@QEAA@AEAV12@_N@Z| DCD |??0sentry@?$basic_istream@DU?$char_traits@D@std@@@std@@QEAA@AEAV12@_N@Z|
	DCD	0xffffffff
	DCD	|??0sentry@?$basic_istream@DU?$char_traits@D@std@@@std@@QEAA@AEAV12@_N@Z|+120
	DCD	0x0
	DCD	|??0sentry@?$basic_istream@DU?$char_traits@D@std@@@std@@QEAA@AEAV12@_N@Z|+160
	DCD	0xffffffff

	AREA	|.xdata|, DATA
|$stateUnwindMap$??0sentry@?$basic_istream@DU?$char_traits@D@std@@@std@@QEAA@AEAV12@_N@Z| DCD 0xffffffff
	DCD	|?dtor$0@?0???0sentry@?$basic_istream@DU?$char_traits@D@std@@@std@@QEAA@AEAV12@_N@Z@4HA|

	AREA	|.rdata|, DATA, READONLY
|$cppxdata$??0sentry@?$basic_istream@DU?$char_traits@D@std@@@std@@QEAA@AEAV12@_N@Z| DCD 0x19930522
	DCD	0x1
	DCD	|$stateUnwindMap$??0sentry@?$basic_istream@DU?$char_traits@D@std@@@std@@QEAA@AEAV12@_N@Z|
	DCD	0x0
	DCD	0x0
	DCD	0x3
	DCD	|$ip2state$??0sentry@?$basic_istream@DU?$char_traits@D@std@@@std@@QEAA@AEAV12@_N@Z|
	DCD	0xffffffb8
	DCD	0x0
	DCD	0x1

	AREA	|.xdata|, DATA
|$unwind$??0sentry@?$basic_istream@DU?$char_traits@D@std@@@std@@QEAA@AEAV12@_N@Z| DCD 0x1830002f
	DCD	0xd005d2e1
	DCD	0x8542c8c4
	DCD	0xe3e3e3e4
	DCD	|__CxxFrameHandler3|
	DCD	|$cppxdata$??0sentry@?$basic_istream@DU?$char_traits@D@std@@@std@@QEAA@AEAV12@_N@Z|
	;Code Words[3], Epilog Start Index[0], E[1], X[1], Function Length[47]=188 bytes
	;set_fp
	;save_reg
	;save_reg
	;save_regp
	;save_fplr_x
	;end
	;nop
	;nop
	;nop

	AREA	|.xdata|, DATA
|$ip2state$??1_Sentry_base@?$basic_istream@DU?$char_traits@D@std@@@std@@QEAA@XZ| DCD |??1_Sentry_base@?$basic_istream@DU?$char_traits@D@std@@@std@@QEAA@XZ|
	DCD	0xffffffff

	AREA	|.rdata|, DATA, READONLY
|$cppxdata$??1_Sentry_base@?$basic_istream@DU?$char_traits@D@std@@@std@@QEAA@XZ| DCD 0x19930522
	DCD	0x0
	DCD	0x0
	DCD	0x0
	DCD	0x0
	DCD	0x1
	DCD	|$ip2state$??1_Sentry_base@?$basic_istream@DU?$char_traits@D@std@@@std@@QEAA@XZ|
	DCD	0xffffffb8
	DCD	0x0
	DCD	0x5

	AREA	|.xdata|, DATA
|$unwind$??1_Sentry_base@?$basic_istream@DU?$char_traits@D@std@@@std@@QEAA@XZ| DCD 0x33300030
	DCD	0x44c846c8
	DCD	0x40c842c8
	DCD	0x10e3e3e3
	DCD	0xd005d2e1
	DCD	0x8542c8c4
	DCD	0xe3e3e3e4
	DCD	|__CxxFrameHandler3|
	DCD	|$cppxdata$??1_Sentry_base@?$basic_istream@DU?$char_traits@D@std@@@std@@QEAA@XZ|
	;Code Words[6], Epilog Start Index[12], E[1], X[1], Function Length[48]=192 bytes
	;save_regp
	;save_regp
	;save_regp
	;save_regp
	;nop
	;nop
	;nop
	;alloc_s
	;set_fp
	;save_reg
	;save_reg
	;save_regp
	;save_fplr_x
	;end
	;nop
	;nop
	;nop

	AREA	|.xdata|, DATA
|$unwind$??0_Sentry_base@?$basic_istream@DU?$char_traits@D@std@@@std@@QEAA@AEAV12@@Z| DCD 0x33200033
	DCD	0x44c846c8
	DCD	0x40c842c8
	DCD	0x10e3e3e3
	DCD	0xd005d2e1
	DCD	0x8542c8c4
	DCD	0xe3e3e3e4
	;Code Words[6], Epilog Start Index[12], E[1], X[0], Function Length[51]=204 bytes
	;save_regp
	;save_regp
	;save_regp
	;save_regp
	;nop
	;nop
	;nop
	;alloc_s
	;set_fp
	;save_reg
	;save_reg
	;save_regp
	;save_fplr_x
	;end
	;nop
	;nop
	;nop

	AREA	|.xdata|, DATA
|$unwind$?catch$2@?0???$_Istream_extract_into_buffer@DU?$char_traits@D@std@@@std@@YAAEAV?$basic_istream@DU?$char_traits@D@std@@@0@AEAV10@_KPEAD@Z@4HA| DCD 0x10500019
	DCD	0x13
	DCD	0xc4d005d2
	DCD	0xe48542c8
	DCD	|__CxxFrameHandler3|
	DCD	|$cppxdata$??$_Istream_extract_into_buffer@DU?$char_traits@D@std@@@std@@YAAEAV?$basic_istream@DU?$char_traits@D@std@@@0@AEAV10@_KPEAD@Z|
	;Code Words[2], Epilog Count[1], E[0], X[1], Function Length[25]=100 bytes
	;Epilog Start Index[0], Epilog Start Offset[19]=76 bytes
	;save_reg
	;save_reg
	;save_regp
	;save_fplr_x
	;end

	AREA	|.xdata|, DATA
|$unwind$?dtor$1@?0???$_Istream_extract_into_buffer@DU?$char_traits@D@std@@@std@@YAAEAV?$basic_istream@DU?$char_traits@D@std@@@0@AEAV10@_KPEAD@Z@4HA| DCD 0x1020000b
	DCD	0xc4d005d2
	DCD	0xe48542c8
	;Code Words[2], Epilog Start Index[0], E[1], X[0], Function Length[11]=44 bytes
	;save_reg
	;save_reg
	;save_regp
	;save_fplr_x
	;end

	AREA	|.xdata|, DATA
|$unwind$?dtor$0@?0???$_Istream_extract_into_buffer@DU?$char_traits@D@std@@@std@@YAAEAV?$basic_istream@DU?$char_traits@D@std@@@0@AEAV10@_KPEAD@Z@4HA| DCD 0x1020000b
	DCD	0xc4d005d2
	DCD	0xe48542c8
	;Code Words[2], Epilog Start Index[0], E[1], X[0], Function Length[11]=44 bytes
	;save_reg
	;save_reg
	;save_regp
	;save_fplr_x
	;end

	AREA	|.xdata|, DATA
|$ip2state$??$_Istream_extract_into_buffer@DU?$char_traits@D@std@@@std@@YAAEAV?$basic_istream@DU?$char_traits@D@std@@@0@AEAV10@_KPEAD@Z| DCD |??$_Istream_extract_into_buffer@DU?$char_traits@D@std@@@std@@YAAEAV?$basic_istream@DU?$char_traits@D@std@@@0@AEAV10@_KPEAD@Z|
	DCD	0xffffffff
	DCD	|??$_Istream_extract_into_buffer@DU?$char_traits@D@std@@@std@@YAAEAV?$basic_istream@DU?$char_traits@D@std@@@0@AEAV10@_KPEAD@Z|+140
	DCD	0x0
	DCD	|??$_Istream_extract_into_buffer@DU?$char_traits@D@std@@@std@@YAAEAV?$basic_istream@DU?$char_traits@D@std@@@0@AEAV10@_KPEAD@Z|+220
	DCD	0x1
	DCD	|??$_Istream_extract_into_buffer@DU?$char_traits@D@std@@@std@@YAAEAV?$basic_istream@DU?$char_traits@D@std@@@0@AEAV10@_KPEAD@Z|+232
	DCD	0x0
	DCD	|??$_Istream_extract_into_buffer@DU?$char_traits@D@std@@@std@@YAAEAV?$basic_istream@DU?$char_traits@D@std@@@0@AEAV10@_KPEAD@Z|+244
	DCD	0x2
	DCD	|??$_Istream_extract_into_buffer@DU?$char_traits@D@std@@@std@@YAAEAV?$basic_istream@DU?$char_traits@D@std@@@0@AEAV10@_KPEAD@Z|+708
	DCD	0x0
	DCD	|??$_Istream_extract_into_buffer@DU?$char_traits@D@std@@@std@@YAAEAV?$basic_istream@DU?$char_traits@D@std@@@0@AEAV10@_KPEAD@Z|+864
	DCD	0xffffffff
	DCD	|?catch$2@?0???$_Istream_extract_into_buffer@DU?$char_traits@D@std@@@std@@YAAEAV?$basic_istream@DU?$char_traits@D@std@@@0@AEAV10@_KPEAD@Z@4HA|
	DCD	0x0
	DCD	|?catch$2@?0???$_Istream_extract_into_buffer@DU?$char_traits@D@std@@@std@@YAAEAV?$basic_istream@DU?$char_traits@D@std@@@0@AEAV10@_KPEAD@Z@4HA|+16
	DCD	0x3
	DCD	|?catch$2@?0???$_Istream_extract_into_buffer@DU?$char_traits@D@std@@@std@@YAAEAV?$basic_istream@DU?$char_traits@D@std@@@0@AEAV10@_KPEAD@Z@4HA|+68
	DCD	0x0

	AREA	|.xdata|, DATA
|$handlerMap$0$??$_Istream_extract_into_buffer@DU?$char_traits@D@std@@@std@@YAAEAV?$basic_istream@DU?$char_traits@D@std@@@0@AEAV10@_KPEAD@Z| DCD 0x40
	DCD	0x0
	DCD	0x0
	DCD	|?catch$2@?0???$_Istream_extract_into_buffer@DU?$char_traits@D@std@@@std@@YAAEAV?$basic_istream@DU?$char_traits@D@std@@@0@AEAV10@_KPEAD@Z@4HA|
	DCD	0x0

	AREA	|.xdata|, DATA
|$tryMap$??$_Istream_extract_into_buffer@DU?$char_traits@D@std@@@std@@YAAEAV?$basic_istream@DU?$char_traits@D@std@@@0@AEAV10@_KPEAD@Z| DCD 0x2
	DCD	0x2
	DCD	0x3
	DCD	0x1
	DCD	|$handlerMap$0$??$_Istream_extract_into_buffer@DU?$char_traits@D@std@@@std@@YAAEAV?$basic_istream@DU?$char_traits@D@std@@@0@AEAV10@_KPEAD@Z|

	AREA	|.xdata|, DATA
|$stateUnwindMap$??$_Istream_extract_into_buffer@DU?$char_traits@D@std@@@std@@YAAEAV?$basic_istream@DU?$char_traits@D@std@@@0@AEAV10@_KPEAD@Z| DCD 0xffffffff
	DCD	|?dtor$0@?0???$_Istream_extract_into_buffer@DU?$char_traits@D@std@@@std@@YAAEAV?$basic_istream@DU?$char_traits@D@std@@@0@AEAV10@_KPEAD@Z@4HA|
	DCD	0x0
	DCD	|?dtor$1@?0???$_Istream_extract_into_buffer@DU?$char_traits@D@std@@@std@@YAAEAV?$basic_istream@DU?$char_traits@D@std@@@0@AEAV10@_KPEAD@Z@4HA|
	DCD	0x0
	DCD	0x0
	DCD	0x0
	DCD	0x0

	AREA	|.xdata|, DATA
|$unwind$??$_Istream_extract_into_buffer@DU?$char_traits@D@std@@@std@@YAAEAV?$basic_istream@DU?$char_traits@D@std@@@0@AEAV10@_KPEAD@Z| DCD 0x183000ea
	DCD	0xd005d2e1
	DCD	0x8542c8c4
	DCD	0xe3e3e3e4
	DCD	|__GSHandlerCheck_EH|
	DCD	|$cppxdata$??$_Istream_extract_into_buffer@DU?$char_traits@D@std@@@std@@YAAEAV?$basic_istream@DU?$char_traits@D@std@@@0@AEAV10@_KPEAD@Z|
	DCD	0xffffffcb
	;Code Words[3], Epilog Start Index[0], E[1], X[1], Function Length[234]=936 bytes
	;set_fp
	;save_reg
	;save_reg
	;save_regp
	;save_fplr_x
	;end
	;nop
	;nop
	;nop

	AREA	|.rdata|, DATA, READONLY
|??$_Istream_extract_into_buffer@DU?$char_traits@D@std@@@std@@YAAEAV?$basic_istream@DU?$char_traits@D@std@@@0@AEAV10@_KPEAD@Z$rtcName$0| DCB 0x5f ; std::_Istream_extract_into_buffer<char,std::char_traits<char> >
	DCB	0x4f
	DCB	0x6b
	DCB	0x0
|??$_Istream_extract_into_buffer@DU?$char_traits@D@std@@@std@@YAAEAV?$basic_istream@DU?$char_traits@D@std@@@0@AEAV10@_KPEAD@Z$rtcName$1| DCB 0x5f ; std::_Istream_extract_into_buffer<char,std::char_traits<char> >
	DCB	0x4d
	DCB	0x65
	DCB	0x74
	DCB	0x61
	DCB	0x0
	%	6
|??$_Istream_extract_into_buffer@DU?$char_traits@D@std@@@std@@YAAEAV?$basic_istream@DU?$char_traits@D@std@@@0@AEAV10@_KPEAD@Z$rtcVarDesc| DCD 0xa0 ; std::_Istream_extract_into_buffer<char,std::char_traits<char> >
	DCD	0x4
	DCQ	|??$_Istream_extract_into_buffer@DU?$char_traits@D@std@@@std@@YAAEAV?$basic_istream@DU?$char_traits@D@std@@@0@AEAV10@_KPEAD@Z$rtcName$1|, 0
	DCD	0x58
	DCD	0x10
	DCQ	|??$_Istream_extract_into_buffer@DU?$char_traits@D@std@@@std@@YAAEAV?$basic_istream@DU?$char_traits@D@std@@@0@AEAV10@_KPEAD@Z$rtcName$0|, 0
	%	96
|??$_Istream_extract_into_buffer@DU?$char_traits@D@std@@@std@@YAAEAV?$basic_istream@DU?$char_traits@D@std@@@0@AEAV10@_KPEAD@Z$rtcFrameData| DCD 0x2 ; std::_Istream_extract_into_buffer<char,std::char_traits<char> >
	DCD	0x0
	DCQ	|??$_Istream_extract_into_buffer@DU?$char_traits@D@std@@@std@@YAAEAV?$basic_istream@DU?$char_traits@D@std@@@0@AEAV10@_KPEAD@Z$rtcVarDesc|, 0
|$cppxdata$??$_Istream_extract_into_buffer@DU?$char_traits@D@std@@@std@@YAAEAV?$basic_istream@DU?$char_traits@D@std@@@0@AEAV10@_KPEAD@Z| DCD 0x19930522
	DCD	0x4
	DCD	|$stateUnwindMap$??$_Istream_extract_into_buffer@DU?$char_traits@D@std@@@std@@YAAEAV?$basic_istream@DU?$char_traits@D@std@@@0@AEAV10@_KPEAD@Z|
	DCD	0x1
	DCD	|$tryMap$??$_Istream_extract_into_buffer@DU?$char_traits@D@std@@@std@@YAAEAV?$basic_istream@DU?$char_traits@D@std@@@0@AEAV10@_KPEAD@Z|
	DCD	0xa
	DCD	|$ip2state$??$_Istream_extract_into_buffer@DU?$char_traits@D@std@@@std@@YAAEAV?$basic_istream@DU?$char_traits@D@std@@@0@AEAV10@_KPEAD@Z|
	DCD	0xffffffa0
	DCD	0x0
	DCD	0x1

	AREA	|.xdata|, DATA
|$unwind$??Bsentry@?$basic_ostream@DU?$char_traits@D@std@@@std@@QEBA_NXZ| DCD 0x2a200018
	DCD	0x40c842c8
	DCD	0xee3e3e3
	DCD	0xd005d2e1
	DCD	0x8542c8c4
	DCD	0xe3e3e3e4
	;Code Words[5], Epilog Start Index[8], E[1], X[0], Function Length[24]=96 bytes
	;save_regp
	;save_regp
	;nop
	;nop
	;nop
	;alloc_s
	;set_fp
	;save_reg
	;save_reg
	;save_regp
	;save_fplr_x
	;end
	;nop
	;nop
	;nop

	AREA	|.xdata|, DATA
|$ip2state$??1sentry@?$basic_ostream@DU?$char_traits@D@std@@@std@@QEAA@XZ| DCD |??1sentry@?$basic_ostream@DU?$char_traits@D@std@@@std@@QEAA@XZ|
	DCD	0xffffffff

	AREA	|.rdata|, DATA, READONLY
|$cppxdata$??1sentry@?$basic_ostream@DU?$char_traits@D@std@@@std@@QEAA@XZ| DCD 0x19930522
	DCD	0x0
	DCD	0x0
	DCD	0x0
	DCD	0x0
	DCD	0x1
	DCD	|$ip2state$??1sentry@?$basic_ostream@DU?$char_traits@D@std@@@std@@QEAA@XZ|
	DCD	0xffffffb8
	DCD	0x0
	DCD	0x5

	AREA	|.xdata|, DATA
|$unwind$??1sentry@?$basic_ostream@DU?$char_traits@D@std@@@std@@QEAA@XZ| DCD 0x33300030
	DCD	0x44c846c8
	DCD	0x40c842c8
	DCD	0x10e3e3e3
	DCD	0xd005d2e1
	DCD	0x8542c8c4
	DCD	0xe3e3e3e4
	DCD	|__CxxFrameHandler3|
	DCD	|$cppxdata$??1sentry@?$basic_ostream@DU?$char_traits@D@std@@@std@@QEAA@XZ|
	;Code Words[6], Epilog Start Index[12], E[1], X[1], Function Length[48]=192 bytes
	;save_regp
	;save_regp
	;save_regp
	;save_regp
	;nop
	;nop
	;nop
	;alloc_s
	;set_fp
	;save_reg
	;save_reg
	;save_regp
	;save_fplr_x
	;end
	;nop
	;nop
	;nop

	AREA	|.xdata|, DATA
|$unwind$?dtor$0@?0???0sentry@?$basic_ostream@DU?$char_traits@D@std@@@std@@QEAA@AEAV12@@Z@4HA| DCD 0x1020000b
	DCD	0xc4d005d2
	DCD	0xe48542c8
	;Code Words[2], Epilog Start Index[0], E[1], X[0], Function Length[11]=44 bytes
	;save_reg
	;save_reg
	;save_regp
	;save_fplr_x
	;end

	AREA	|.xdata|, DATA
|$ip2state$??0sentry@?$basic_ostream@DU?$char_traits@D@std@@@std@@QEAA@AEAV12@@Z| DCD |??0sentry@?$basic_ostream@DU?$char_traits@D@std@@@std@@QEAA@AEAV12@@Z|
	DCD	0xffffffff
	DCD	|??0sentry@?$basic_ostream@DU?$char_traits@D@std@@@std@@QEAA@AEAV12@@Z|+112
	DCD	0x0
	DCD	|??0sentry@?$basic_ostream@DU?$char_traits@D@std@@@std@@QEAA@AEAV12@@Z|+352
	DCD	0xffffffff

	AREA	|.xdata|, DATA
|$stateUnwindMap$??0sentry@?$basic_ostream@DU?$char_traits@D@std@@@std@@QEAA@AEAV12@@Z| DCD 0xffffffff
	DCD	|?dtor$0@?0???0sentry@?$basic_ostream@DU?$char_traits@D@std@@@std@@QEAA@AEAV12@@Z@4HA|

	AREA	|.rdata|, DATA, READONLY
|$cppxdata$??0sentry@?$basic_ostream@DU?$char_traits@D@std@@@std@@QEAA@AEAV12@@Z| DCD 0x19930522
	DCD	0x1
	DCD	|$stateUnwindMap$??0sentry@?$basic_ostream@DU?$char_traits@D@std@@@std@@QEAA@AEAV12@@Z|
	DCD	0x0
	DCD	0x0
	DCD	0x3
	DCD	|$ip2state$??0sentry@?$basic_ostream@DU?$char_traits@D@std@@@std@@QEAA@AEAV12@@Z|
	DCD	0xffffffb8
	DCD	0x0
	DCD	0x1

	AREA	|.xdata|, DATA
|$unwind$??0sentry@?$basic_ostream@DU?$char_traits@D@std@@@std@@QEAA@AEAV12@@Z| DCD 0x1830005f
	DCD	0xd005d2e1
	DCD	0x8542c8c4
	DCD	0xe3e3e3e4
	DCD	|__CxxFrameHandler3|
	DCD	|$cppxdata$??0sentry@?$basic_ostream@DU?$char_traits@D@std@@@std@@QEAA@AEAV12@@Z|
	;Code Words[3], Epilog Start Index[0], E[1], X[1], Function Length[95]=380 bytes
	;set_fp
	;save_reg
	;save_reg
	;save_regp
	;save_fplr_x
	;end
	;nop
	;nop
	;nop

	AREA	|.xdata|, DATA
|$ip2state$??1_Sentry_base@?$basic_ostream@DU?$char_traits@D@std@@@std@@QEAA@XZ| DCD |??1_Sentry_base@?$basic_ostream@DU?$char_traits@D@std@@@std@@QEAA@XZ|
	DCD	0xffffffff

	AREA	|.rdata|, DATA, READONLY
|$cppxdata$??1_Sentry_base@?$basic_ostream@DU?$char_traits@D@std@@@std@@QEAA@XZ| DCD 0x19930522
	DCD	0x0
	DCD	0x0
	DCD	0x0
	DCD	0x0
	DCD	0x1
	DCD	|$ip2state$??1_Sentry_base@?$basic_ostream@DU?$char_traits@D@std@@@std@@QEAA@XZ|
	DCD	0xffffffb8
	DCD	0x0
	DCD	0x5

	AREA	|.xdata|, DATA
|$unwind$??1_Sentry_base@?$basic_ostream@DU?$char_traits@D@std@@@std@@QEAA@XZ| DCD 0x33300030
	DCD	0x44c846c8
	DCD	0x40c842c8
	DCD	0x10e3e3e3
	DCD	0xd005d2e1
	DCD	0x8542c8c4
	DCD	0xe3e3e3e4
	DCD	|__CxxFrameHandler3|
	DCD	|$cppxdata$??1_Sentry_base@?$basic_ostream@DU?$char_traits@D@std@@@std@@QEAA@XZ|
	;Code Words[6], Epilog Start Index[12], E[1], X[1], Function Length[48]=192 bytes
	;save_regp
	;save_regp
	;save_regp
	;save_regp
	;nop
	;nop
	;nop
	;alloc_s
	;set_fp
	;save_reg
	;save_reg
	;save_regp
	;save_fplr_x
	;end
	;nop
	;nop
	;nop

	AREA	|.xdata|, DATA
|$unwind$??0_Sentry_base@?$basic_ostream@DU?$char_traits@D@std@@@std@@QEAA@AEAV12@@Z| DCD 0x33200033
	DCD	0x44c846c8
	DCD	0x40c842c8
	DCD	0x10e3e3e3
	DCD	0xd005d2e1
	DCD	0x8542c8c4
	DCD	0xe3e3e3e4
	;Code Words[6], Epilog Start Index[12], E[1], X[0], Function Length[51]=204 bytes
	;save_regp
	;save_regp
	;save_regp
	;save_regp
	;nop
	;nop
	;nop
	;alloc_s
	;set_fp
	;save_reg
	;save_reg
	;save_regp
	;save_fplr_x
	;end
	;nop
	;nop
	;nop

	AREA	|.xdata|, DATA
|$unwind$??$endl@DU?$char_traits@D@std@@@std@@YAAEAV?$basic_ostream@DU?$char_traits@D@std@@@0@AEAV10@@Z| DCD 0x2a20002b
	DCD	0x40c842c8
	DCD	0xee3e3e3
	DCD	0xd005d2e1
	DCD	0x8542c8c4
	DCD	0xe3e3e3e4
	;Code Words[5], Epilog Start Index[8], E[1], X[0], Function Length[43]=172 bytes
	;save_regp
	;save_regp
	;nop
	;nop
	;nop
	;alloc_s
	;set_fp
	;save_reg
	;save_reg
	;save_regp
	;save_fplr_x
	;end
	;nop
	;nop
	;nop

	AREA	|.xdata|, DATA
|$unwind$?catch$1@?0???$?6U?$char_traits@D@std@@@std@@YAAEAV?$basic_ostream@DU?$char_traits@D@std@@@0@AEAV10@PEBD@Z@4HA| DCD 0x10500019
	DCD	0x13
	DCD	0xc4d005d2
	DCD	0xe48542c8
	DCD	|__CxxFrameHandler3|
	DCD	|$cppxdata$??$?6U?$char_traits@D@std@@@std@@YAAEAV?$basic_ostream@DU?$char_traits@D@std@@@0@AEAV10@PEBD@Z|
	;Code Words[2], Epilog Count[1], E[0], X[1], Function Length[25]=100 bytes
	;Epilog Start Index[0], Epilog Start Offset[19]=76 bytes
	;save_reg
	;save_reg
	;save_regp
	;save_fplr_x
	;end

	AREA	|.xdata|, DATA
|$unwind$?dtor$0@?0???$?6U?$char_traits@D@std@@@std@@YAAEAV?$basic_ostream@DU?$char_traits@D@std@@@0@AEAV10@PEBD@Z@4HA| DCD 0x1020000b
	DCD	0xc4d005d2
	DCD	0xe48542c8
	;Code Words[2], Epilog Start Index[0], E[1], X[0], Function Length[11]=44 bytes
	;save_reg
	;save_reg
	;save_regp
	;save_fplr_x
	;end

	AREA	|.xdata|, DATA
|$ip2state$??$?6U?$char_traits@D@std@@@std@@YAAEAV?$basic_ostream@DU?$char_traits@D@std@@@0@AEAV10@PEBD@Z| DCD |??$?6U?$char_traits@D@std@@@std@@YAAEAV?$basic_ostream@DU?$char_traits@D@std@@@0@AEAV10@PEBD@Z|
	DCD	0xffffffff
	DCD	|??$?6U?$char_traits@D@std@@@std@@YAAEAV?$basic_ostream@DU?$char_traits@D@std@@@0@AEAV10@PEBD@Z|+308
	DCD	0x0
	DCD	|??$?6U?$char_traits@D@std@@@std@@YAAEAV?$basic_ostream@DU?$char_traits@D@std@@@0@AEAV10@PEBD@Z|+348
	DCD	0x1
	DCD	|??$?6U?$char_traits@D@std@@@std@@YAAEAV?$basic_ostream@DU?$char_traits@D@std@@@0@AEAV10@PEBD@Z|+1012
	DCD	0x0
	DCD	|??$?6U?$char_traits@D@std@@@std@@YAAEAV?$basic_ostream@DU?$char_traits@D@std@@@0@AEAV10@PEBD@Z|+1072
	DCD	0xffffffff
	DCD	|?catch$1@?0???$?6U?$char_traits@D@std@@@std@@YAAEAV?$basic_ostream@DU?$char_traits@D@std@@@0@AEAV10@PEBD@Z@4HA|
	DCD	0x0
	DCD	|?catch$1@?0???$?6U?$char_traits@D@std@@@std@@YAAEAV?$basic_ostream@DU?$char_traits@D@std@@@0@AEAV10@PEBD@Z@4HA|+16
	DCD	0x2
	DCD	|?catch$1@?0???$?6U?$char_traits@D@std@@@std@@YAAEAV?$basic_ostream@DU?$char_traits@D@std@@@0@AEAV10@PEBD@Z@4HA|+68
	DCD	0x0

	AREA	|.xdata|, DATA
|$handlerMap$0$??$?6U?$char_traits@D@std@@@std@@YAAEAV?$basic_ostream@DU?$char_traits@D@std@@@0@AEAV10@PEBD@Z| DCD 0x40
	DCD	0x0
	DCD	0x0
	DCD	|?catch$1@?0???$?6U?$char_traits@D@std@@@std@@YAAEAV?$basic_ostream@DU?$char_traits@D@std@@@0@AEAV10@PEBD@Z@4HA|
	DCD	0x0

	AREA	|.xdata|, DATA
|$tryMap$??$?6U?$char_traits@D@std@@@std@@YAAEAV?$basic_ostream@DU?$char_traits@D@std@@@0@AEAV10@PEBD@Z| DCD 0x1
	DCD	0x1
	DCD	0x2
	DCD	0x1
	DCD	|$handlerMap$0$??$?6U?$char_traits@D@std@@@std@@YAAEAV?$basic_ostream@DU?$char_traits@D@std@@@0@AEAV10@PEBD@Z|

	AREA	|.xdata|, DATA
|$stateUnwindMap$??$?6U?$char_traits@D@std@@@std@@YAAEAV?$basic_ostream@DU?$char_traits@D@std@@@0@AEAV10@PEBD@Z| DCD 0xffffffff
	DCD	|?dtor$0@?0???$?6U?$char_traits@D@std@@@std@@YAAEAV?$basic_ostream@DU?$char_traits@D@std@@@0@AEAV10@PEBD@Z@4HA|
	DCD	0x0
	DCD	0x0
	DCD	0x0
	DCD	0x0

	AREA	|.xdata|, DATA
|$unwind$??$?6U?$char_traits@D@std@@@std@@YAAEAV?$basic_ostream@DU?$char_traits@D@std@@@0@AEAV10@PEBD@Z| DCD 0x1830011e
	DCD	0xd005d2e1
	DCD	0x8542c8c4
	DCD	0xe3e3e3e4
	DCD	|__GSHandlerCheck_EH|
	DCD	|$cppxdata$??$?6U?$char_traits@D@std@@@std@@YAAEAV?$basic_ostream@DU?$char_traits@D@std@@@0@AEAV10@PEBD@Z|
	DCD	0xffffffcb
	;Code Words[3], Epilog Start Index[0], E[1], X[1], Function Length[286]=1144 bytes
	;set_fp
	;save_reg
	;save_reg
	;save_regp
	;save_fplr_x
	;end
	;nop
	;nop
	;nop

	AREA	|.rdata|, DATA, READONLY
|??$?6U?$char_traits@D@std@@@std@@YAAEAV?$basic_ostream@DU?$char_traits@D@std@@@0@AEAV10@PEBD@Z$rtcName$0| DCB 0x5f ; std::operator<<<std::char_traits<char> >
	DCB	0x4f
	DCB	0x6b
	DCB	0x0
	%	12
|??$?6U?$char_traits@D@std@@@std@@YAAEAV?$basic_ostream@DU?$char_traits@D@std@@@0@AEAV10@PEBD@Z$rtcVarDesc| DCD 0x58 ; std::operator<<<std::char_traits<char> >
	DCD	0x10
	DCQ	|??$?6U?$char_traits@D@std@@@std@@YAAEAV?$basic_ostream@DU?$char_traits@D@std@@@0@AEAV10@PEBD@Z$rtcName$0|, 0
	%	48
|??$?6U?$char_traits@D@std@@@std@@YAAEAV?$basic_ostream@DU?$char_traits@D@std@@@0@AEAV10@PEBD@Z$rtcFrameData| DCD 0x1 ; std::operator<<<std::char_traits<char> >
	DCD	0x0
	DCQ	|??$?6U?$char_traits@D@std@@@std@@YAAEAV?$basic_ostream@DU?$char_traits@D@std@@@0@AEAV10@PEBD@Z$rtcVarDesc|, 0
|$cppxdata$??$?6U?$char_traits@D@std@@@std@@YAAEAV?$basic_ostream@DU?$char_traits@D@std@@@0@AEAV10@PEBD@Z| DCD 0x19930522
	DCD	0x3
	DCD	|$stateUnwindMap$??$?6U?$char_traits@D@std@@@std@@YAAEAV?$basic_ostream@DU?$char_traits@D@std@@@0@AEAV10@PEBD@Z|
	DCD	0x1
	DCD	|$tryMap$??$?6U?$char_traits@D@std@@@std@@YAAEAV?$basic_ostream@DU?$char_traits@D@std@@@0@AEAV10@PEBD@Z|
	DCD	0x8
	DCD	|$ip2state$??$?6U?$char_traits@D@std@@@std@@YAAEAV?$basic_ostream@DU?$char_traits@D@std@@@0@AEAV10@PEBD@Z|
	DCD	0xffffffa0
	DCD	0x0
	DCD	0x1

	AREA	|.xdata|, DATA
|$unwind$??$?5DU?$char_traits@D@std@@@std@@YAAEAV?$basic_istream@DU?$char_traits@D@std@@@0@AEAV10@PEAD@Z| DCD 0x2aa0001b
	DCD	0x42c844c8
	DCD	0xe3e340c8
	DCD	0xd2e10fe3
	DCD	0xc8c4d005
	DCD	0xe3e48542
	;Code Words[5], Epilog Start Index[10], E[1], X[0], Function Length[27]=108 bytes
	;save_regp
	;save_regp
	;save_regp
	;nop
	;nop
	;nop
	;alloc_s
	;set_fp
	;save_reg
	;save_reg
	;save_regp
	;save_fplr_x
	;end
	;nop

	AREA	|.xdata|, DATA
|$unwind$main| DCD 0x183000eb
	DCD	0xd005d2e1
	DCD	0x8542c8c4
	DCD	0xe3e3e3e4
	DCD	|__GSHandlerCheck|
	DCD	0xffffffc8
	;Code Words[3], Epilog Start Index[0], E[1], X[1], Function Length[235]=940 bytes
	;set_fp
	;save_reg
	;save_reg
	;save_regp
	;save_fplr_x
	;end
	;nop
	;nop
	;nop

	AREA	|.rdata|, DATA, READONLY
|main$rtcName$0| DCB 0x69
	DCB	0x44
	DCB	0x61
	DCB	0x79
	DCB	0x0
	%	3
|main$rtcName$1| DCB 0x69
	DCB	0x4d
	DCB	0x6f
	DCB	0x6e
	DCB	0x74
	DCB	0x68
	DCB	0x0
	%	1
|main$rtcName$2| DCB 0x69
	DCB	0x59
	DCB	0x65
	DCB	0x61
	DCB	0x72
	DCB	0x0
	%	2
|main$rtcName$3| DCB 0x69
	DCB	0x6e
	DCB	0x70
	DCB	0x75
	DCB	0x74
	DCB	0x0
	%	2
|main$rtcName$4| DCB 0x62
	DCB	0x69
	DCB	0x72
	DCB	0x74
	DCB	0x68
	DCB	0x44
	DCB	0x61
	DCB	0x79
	DCB	0x0
	%	7
|main$rtcName$5| DCB 0x62
	DCB	0x69
	DCB	0x72
	DCB	0x74
	DCB	0x68
	DCB	0x4d
	DCB	0x6f
	DCB	0x6e
	DCB	0x74
	DCB	0x68
	DCB	0x0
	%	5
|main$rtcName$6| DCB 0x62
	DCB	0x69
	DCB	0x72
	DCB	0x74
	DCB	0x68
	DCB	0x59
	DCB	0x65
	DCB	0x61
	DCB	0x72
	DCB	0x0
	%	6
|main$rtcVarDesc| DCD 0x84
	DCD	0x4
	DCQ	|main$rtcName$6|, 0
	DCD	0x78
	DCD	0x4
	DCQ	|main$rtcName$5|, 0
	DCD	0x6c
	DCD	0x4
	DCQ	|main$rtcName$4|, 0
	DCD	0x48
	DCD	0x9
	DCQ	|main$rtcName$3|, 0
	DCD	0x38
	DCD	0x4
	DCQ	|main$rtcName$2|, 0
	DCD	0x2c
	DCD	0x4
	DCQ	|main$rtcName$1|, 0
	DCD	0x20
	DCD	0x4
	DCQ	|main$rtcName$0|, 0
	%	336
|main$rtcFrameData| DCD 0x7
	DCD	0x0
	DCQ	|main$rtcVarDesc|, 0

	AREA	|.xdata|, DATA
|$unwind$??$forward@AEAPEAV_Facet_base@std@@@std@@YAAEAPEAV_Facet_base@0@AEAPEAV10@@Z| DCD 0x2a200016
	DCD	0x40c842c8
	DCD	0xee3e3e3
	DCD	0xd005d2e1
	DCD	0x8542c8c4
	DCD	0xe3e3e3e4
	;Code Words[5], Epilog Start Index[8], E[1], X[0], Function Length[22]=88 bytes
	;save_regp
	;save_regp
	;nop
	;nop
	;nop
	;alloc_s
	;set_fp
	;save_reg
	;save_reg
	;save_regp
	;save_fplr_x
	;end
	;nop
	;nop
	;nop

	AREA	|.xdata|, DATA
|$unwind$??$?0AEAPEAV_Facet_base@std@@@?$_Compressed_pair@U?$default_delete@V_Facet_base@std@@@std@@PEAV_Facet_base@2@$00@std@@QEAA@U_Zero_then_variadic_args_t@1@AEAPEAV_Facet_base@1@@Z| DCD 0x2aa00026
	DCD	0x42c844c8
	DCD	0xe3e340c8
	DCD	0xd2e10fe3
	DCD	0xc8c4d005
	DCD	0xe3e48542
	;Code Words[5], Epilog Start Index[10], E[1], X[0], Function Length[38]=152 bytes
	;save_regp
	;save_regp
	;save_regp
	;nop
	;nop
	;nop
	;alloc_s
	;set_fp
	;save_reg
	;save_reg
	;save_regp
	;save_fplr_x
	;end
	;nop

	AREA	|.rdata|, DATA, READONLY
|??$?0AEAPEAV_Facet_base@std@@@?$_Compressed_pair@U?$default_delete@V_Facet_base@std@@@std@@PEAV_Facet_base@2@$00@std@@QEAA@U_Zero_then_variadic_args_t@1@AEAPEAV_Facet_base@1@@Z$rtcName$0| DCB 0x5f ; std::_Compressed_pair<std::default_delete<std::_Facet_base>,std::_Facet_base *,1>::_Compressed_pair<std::default_delete<std::_Facet_base>,std::_Facet_base *,1><std::_Facet_base * &>
	DCB	0x5f
	DCB	0x66
	DCB	0x6f
	DCB	0x72
	DCB	0x6d
	DCB	0x61
	DCB	0x6c
	DCB	0x0
	%	7
|??$?0AEAPEAV_Facet_base@std@@@?$_Compressed_pair@U?$default_delete@V_Facet_base@std@@@std@@PEAV_Facet_base@2@$00@std@@QEAA@U_Zero_then_variadic_args_t@1@AEAPEAV_Facet_base@1@@Z$rtcVarDesc| DCD 0x4 ; std::_Compressed_pair<std::default_delete<std::_Facet_base>,std::_Facet_base *,1>::_Compressed_pair<std::default_delete<std::_Facet_base>,std::_Facet_base *,1><std::_Facet_base * &>
	DCD	0x1
	DCQ	|??$?0AEAPEAV_Facet_base@std@@@?$_Compressed_pair@U?$default_delete@V_Facet_base@std@@@std@@PEAV_Facet_base@2@$00@std@@QEAA@U_Zero_then_variadic_args_t@1@AEAPEAV_Facet_base@1@@Z$rtcName$0|, 0
	%	48
|??$?0AEAPEAV_Facet_base@std@@@?$_Compressed_pair@U?$default_delete@V_Facet_base@std@@@std@@PEAV_Facet_base@2@$00@std@@QEAA@U_Zero_then_variadic_args_t@1@AEAPEAV_Facet_base@1@@Z$rtcFrameData| DCD 0x1 ; std::_Compressed_pair<std::default_delete<std::_Facet_base>,std::_Facet_base *,1>::_Compressed_pair<std::default_delete<std::_Facet_base>,std::_Facet_base *,1><std::_Facet_base * &>
	DCD	0x0
	DCQ	|??$?0AEAPEAV_Facet_base@std@@@?$_Compressed_pair@U?$default_delete@V_Facet_base@std@@@std@@PEAV_Facet_base@2@$00@std@@QEAA@U_Zero_then_variadic_args_t@1@AEAPEAV_Facet_base@1@@Z$rtcVarDesc|, 0

	AREA	|.xdata|, DATA
|$unwind$??$exchange@PEAV_Facet_base@std@@$$T@std@@YAPEAV_Facet_base@0@AEAPEAV10@$$QEA$$T@Z| DCD 0x33200020
	DCD	0x44c846c8
	DCD	0x40c842c8
	DCD	0x10e3e3e3
	DCD	0xd005d2e1
	DCD	0x8542c8c4
	DCD	0xe3e3e3e4
	;Code Words[6], Epilog Start Index[12], E[1], X[0], Function Length[32]=128 bytes
	;save_regp
	;save_regp
	;save_regp
	;save_regp
	;nop
	;nop
	;nop
	;alloc_s
	;set_fp
	;save_reg
	;save_reg
	;save_regp
	;save_fplr_x
	;end
	;nop
	;nop
	;nop

	AREA	|.xdata|, DATA
|$unwind$??$?0U?$default_delete@V_Facet_base@std@@@std@@$0A@@?$unique_ptr@V_Facet_base@std@@U?$default_delete@V_Facet_base@std@@@2@@std@@QEAA@PEAV_Facet_base@1@@Z| DCD 0x2aa00024
	DCD	0x42c844c8
	DCD	0xe3e340c8
	DCD	0xd2e10fe3
	DCD	0xc8c4d005
	DCD	0xe3e48542
	;Code Words[5], Epilog Start Index[10], E[1], X[0], Function Length[36]=144 bytes
	;save_regp
	;save_regp
	;save_regp
	;nop
	;nop
	;nop
	;alloc_s
	;set_fp
	;save_reg
	;save_reg
	;save_regp
	;save_fplr_x
	;end
	;nop

	AREA	|.rdata|, DATA, READONLY
|??$?0U?$default_delete@V_Facet_base@std@@@std@@$0A@@?$unique_ptr@V_Facet_base@std@@U?$default_delete@V_Facet_base@std@@@2@@std@@QEAA@PEAV_Facet_base@1@@Z$rtcName$0| DCB 0x5f ; std::unique_ptr<std::_Facet_base,std::default_delete<std::_Facet_base> >::unique_ptr<std::_Facet_base,std::default_delete<std::_Facet_base> ><std::default_delete<std::_Facet_base>,0>
	DCB	0x50
	DCB	0x74
	DCB	0x72
	DCB	0x0
	%	11
|??$?0U?$default_delete@V_Facet_base@std@@@std@@$0A@@?$unique_ptr@V_Facet_base@std@@U?$default_delete@V_Facet_base@std@@@2@@std@@QEAA@PEAV_Facet_base@1@@Z$rtcVarDesc| DCD 0x8 ; std::unique_ptr<std::_Facet_base,std::default_delete<std::_Facet_base> >::unique_ptr<std::_Facet_base,std::default_delete<std::_Facet_base> ><std::default_delete<std::_Facet_base>,0>
	DCD	0x8
	DCQ	|??$?0U?$default_delete@V_Facet_base@std@@@std@@$0A@@?$unique_ptr@V_Facet_base@std@@U?$default_delete@V_Facet_base@std@@@2@@std@@QEAA@PEAV_Facet_base@1@@Z$rtcName$0|, 0
	%	48
|??$?0U?$default_delete@V_Facet_base@std@@@std@@$0A@@?$unique_ptr@V_Facet_base@std@@U?$default_delete@V_Facet_base@std@@@2@@std@@QEAA@PEAV_Facet_base@1@@Z$rtcFrameData| DCD 0x1 ; std::unique_ptr<std::_Facet_base,std::default_delete<std::_Facet_base> >::unique_ptr<std::_Facet_base,std::default_delete<std::_Facet_base> ><std::default_delete<std::_Facet_base>,0>
	DCD	0x0
	DCQ	|??$?0U?$default_delete@V_Facet_base@std@@@std@@$0A@@?$unique_ptr@V_Facet_base@std@@U?$default_delete@V_Facet_base@std@@@2@@std@@QEAA@PEAV_Facet_base@1@@Z$rtcVarDesc|, 0

	AREA	|.xdata|, DATA
|$unwind$?dtor$1@?0???$use_facet@V?$ctype@D@std@@@std@@YAAEBV?$ctype@D@0@AEBVlocale@0@@Z@4HA| DCD 0x1020000b
	DCD	0xc4d005d2
	DCD	0xe48542c8
	;Code Words[2], Epilog Start Index[0], E[1], X[0], Function Length[11]=44 bytes
	;save_reg
	;save_reg
	;save_regp
	;save_fplr_x
	;end

	AREA	|.xdata|, DATA
|$unwind$?dtor$0@?0???$use_facet@V?$ctype@D@std@@@std@@YAAEBV?$ctype@D@0@AEBVlocale@0@@Z@4HA| DCD 0x1020000d
	DCD	0xc4d005d2
	DCD	0xe48542c8
	;Code Words[2], Epilog Start Index[0], E[1], X[0], Function Length[13]=52 bytes
	;save_reg
	;save_reg
	;save_regp
	;save_fplr_x
	;end

	AREA	|.xdata|, DATA
|$ip2state$??$use_facet@V?$ctype@D@std@@@std@@YAAEBV?$ctype@D@0@AEBVlocale@0@@Z| DCD |??$use_facet@V?$ctype@D@std@@@std@@YAAEBV?$ctype@D@0@AEBVlocale@0@@Z|
	DCD	0xffffffff
	DCD	|??$use_facet@V?$ctype@D@std@@@std@@YAAEBV?$ctype@D@0@AEBVlocale@0@@Z|+120
	DCD	0x0
	DCD	|??$use_facet@V?$ctype@D@std@@@std@@YAAEBV?$ctype@D@0@AEBVlocale@0@@Z|+284
	DCD	0x1
	DCD	|??$use_facet@V?$ctype@D@std@@@std@@YAAEBV?$ctype@D@0@AEBVlocale@0@@Z|+348
	DCD	0x0
	DCD	|??$use_facet@V?$ctype@D@std@@@std@@YAAEBV?$ctype@D@0@AEBVlocale@0@@Z|+364
	DCD	0xffffffff

	AREA	|.xdata|, DATA
|$stateUnwindMap$??$use_facet@V?$ctype@D@std@@@std@@YAAEBV?$ctype@D@0@AEBVlocale@0@@Z| DCD 0xffffffff
	DCD	|?dtor$0@?0???$use_facet@V?$ctype@D@std@@@std@@YAAEBV?$ctype@D@0@AEBVlocale@0@@Z@4HA|
	DCD	0x0
	DCD	|?dtor$1@?0???$use_facet@V?$ctype@D@std@@@std@@YAAEBV?$ctype@D@0@AEBVlocale@0@@Z@4HA|

	AREA	|.xdata|, DATA
|$unwind$??$use_facet@V?$ctype@D@std@@@std@@YAAEBV?$ctype@D@0@AEBVlocale@0@@Z| DCD 0x1830006f
	DCD	0xd005d2e1
	DCD	0x8542c8c4
	DCD	0xe3e3e3e4
	DCD	|__GSHandlerCheck_EH|
	DCD	|$cppxdata$??$use_facet@V?$ctype@D@std@@@std@@YAAEBV?$ctype@D@0@AEBVlocale@0@@Z|
	DCD	0xffffffca
	;Code Words[3], Epilog Start Index[0], E[1], X[1], Function Length[111]=444 bytes
	;set_fp
	;save_reg
	;save_reg
	;save_regp
	;save_fplr_x
	;end
	;nop
	;nop
	;nop

	AREA	|.rdata|, DATA, READONLY
|??$use_facet@V?$ctype@D@std@@@std@@YAAEBV?$ctype@D@0@AEBVlocale@0@@Z$rtcName$0| DCB 0x5f ; std::use_facet<std::ctype<char> >
	DCB	0x4c
	DCB	0x6f
	DCB	0x63
	DCB	0x6b
	DCB	0x0
	%	2
|??$use_facet@V?$ctype@D@std@@@std@@YAAEBV?$ctype@D@0@AEBVlocale@0@@Z$rtcName$1| DCB 0x5f ; std::use_facet<std::ctype<char> >
	DCB	0x50
	DCB	0x73
	DCB	0x61
	DCB	0x76
	DCB	0x65
	DCB	0x0
	%	1
|??$use_facet@V?$ctype@D@std@@@std@@YAAEBV?$ctype@D@0@AEBVlocale@0@@Z$rtcName$2| DCB 0x5f ; std::use_facet<std::ctype<char> >
	DCB	0x50
	DCB	0x73
	DCB	0x61
	DCB	0x76
	DCB	0x65
	DCB	0x5f
	DCB	0x67
	DCB	0x75
	DCB	0x61
	DCB	0x72
	DCB	0x64
	DCB	0x0
	%	3
|??$use_facet@V?$ctype@D@std@@@std@@YAAEBV?$ctype@D@0@AEBVlocale@0@@Z$rtcVarDesc| DCD 0x68 ; std::use_facet<std::ctype<char> >
	DCD	0x8
	DCQ	|??$use_facet@V?$ctype@D@std@@@std@@YAAEBV?$ctype@D@0@AEBVlocale@0@@Z$rtcName$2|, 0
	DCD	0x28
	DCD	0x8
	DCQ	|??$use_facet@V?$ctype@D@std@@@std@@YAAEBV?$ctype@D@0@AEBVlocale@0@@Z$rtcName$1|, 0
	DCD	0x18
	DCD	0x4
	DCQ	|??$use_facet@V?$ctype@D@std@@@std@@YAAEBV?$ctype@D@0@AEBVlocale@0@@Z$rtcName$0|, 0
	%	144
|??$use_facet@V?$ctype@D@std@@@std@@YAAEBV?$ctype@D@0@AEBVlocale@0@@Z$rtcFrameData| DCD 0x3 ; std::use_facet<std::ctype<char> >
	DCD	0x0
	DCQ	|??$use_facet@V?$ctype@D@std@@@std@@YAAEBV?$ctype@D@0@AEBVlocale@0@@Z$rtcVarDesc|, 0
|$cppxdata$??$use_facet@V?$ctype@D@std@@@std@@YAAEBV?$ctype@D@0@AEBVlocale@0@@Z| DCD 0x19930522
	DCD	0x2
	DCD	|$stateUnwindMap$??$use_facet@V?$ctype@D@std@@@std@@YAAEBV?$ctype@D@0@AEBVlocale@0@@Z|
	DCD	0x0
	DCD	0x0
	DCD	0x5
	DCD	|$ip2state$??$use_facet@V?$ctype@D@std@@@std@@YAAEBV?$ctype@D@0@AEBVlocale@0@@Z|
	DCD	0xffffffb8
	DCD	0x0
	DCD	0x1

	AREA	|.xdata|, DATA
|$unwind$?__autoclassinit2@?$unique_ptr@V_Facet_base@std@@U?$default_delete@V_Facet_base@std@@@2@@std@@QEAAX_K@Z| DCD 0x2aa00018
	DCD	0x42c844c8
	DCD	0xe3e340c8
	DCD	0xd2e10fe3
	DCD	0xc8c4d005
	DCD	0xe3e48542
	;Code Words[5], Epilog Start Index[10], E[1], X[0], Function Length[24]=96 bytes
	;save_regp
	;save_regp
	;save_regp
	;nop
	;nop
	;nop
	;alloc_s
	;set_fp
	;save_reg
	;save_reg
	;save_regp
	;save_fplr_x
	;end
	;nop

	AREA	|.xdata|, DATA
|$unwind$?_Get_first@?$_Compressed_pair@U?$default_delete@V_Facet_base@std@@@std@@PEAV_Facet_base@2@$00@std@@QEAAAEAU?$default_delete@V_Facet_base@std@@@2@XZ| DCD 0x2a200016
	DCD	0x40c842c8
	DCD	0xee3e3e3
	DCD	0xd005d2e1
	DCD	0x8542c8c4
	DCD	0xe3e3e3e4
	;Code Words[5], Epilog Start Index[8], E[1], X[0], Function Length[22]=88 bytes
	;save_regp
	;save_regp
	;nop
	;nop
	;nop
	;alloc_s
	;set_fp
	;save_reg
	;save_reg
	;save_regp
	;save_fplr_x
	;end
	;nop
	;nop
	;nop

	AREA	|.xdata|, DATA
|$unwind$?release@?$unique_ptr@V_Facet_base@std@@U?$default_delete@V_Facet_base@std@@@2@@std@@QEAAPEAV_Facet_base@2@XZ| DCD 0x2aa0001b
	DCD	0x42c844c8
	DCD	0xe3e340c8
	DCD	0xd2e10fe3
	DCD	0xc8c4d005
	DCD	0xe3e48542
	;Code Words[5], Epilog Start Index[10], E[1], X[0], Function Length[27]=108 bytes
	;save_regp
	;save_regp
	;save_regp
	;nop
	;nop
	;nop
	;alloc_s
	;set_fp
	;save_reg
	;save_reg
	;save_regp
	;save_fplr_x
	;end
	;nop

	AREA	|.xdata|, DATA
|$unwind$??1?$unique_ptr@V_Facet_base@std@@U?$default_delete@V_Facet_base@std@@@2@@std@@QEAA@XZ| DCD 0x2a20001e
	DCD	0x40c842c8
	DCD	0xee3e3e3
	DCD	0xc806d2e1
	DCD	0x8702c884
	DCD	0xe3e3e3e4
	;Code Words[5], Epilog Start Index[8], E[1], X[0], Function Length[30]=120 bytes
	;save_regp
	;save_regp
	;nop
	;nop
	;nop
	;alloc_s
	;set_fp
	;save_reg
	;save_regp
	;save_regp
	;save_fplr_x
	;end
	;nop
	;nop
	;nop

	AREA	|.xdata|, DATA
|$unwind$??R?$default_delete@V_Facet_base@std@@@std@@QEBAXPEAV_Facet_base@1@@Z| DCD 0x33200027
	DCD	0x44c846c8
	DCD	0x40c842c8
	DCD	0x10e3e3e3
	DCD	0xd005d2e1
	DCD	0x8542c8c4
	DCD	0xe3e3e3e4
	;Code Words[6], Epilog Start Index[12], E[1], X[0], Function Length[39]=156 bytes
	;save_regp
	;save_regp
	;save_regp
	;save_regp
	;nop
	;nop
	;nop
	;alloc_s
	;set_fp
	;save_reg
	;save_reg
	;save_regp
	;save_fplr_x
	;end
	;nop
	;nop
	;nop

	AREA	|.xdata|, DATA
|$unwind$?_Getfacet@locale@std@@QEBAPEBVfacet@12@_K@Z| DCD 0x18200053
	DCD	0xd005d2e1
	DCD	0x8542c8c4
	DCD	0xe3e3e3e4
	;Code Words[3], Epilog Start Index[0], E[1], X[0], Function Length[83]=332 bytes
	;set_fp
	;save_reg
	;save_reg
	;save_regp
	;save_fplr_x
	;end
	;nop
	;nop
	;nop

	AREA	|.xdata|, DATA
|$unwind$??1locale@std@@QEAA@XZ| DCD 0x2aa00033
	DCD	0x42c844c8
	DCD	0xe3e340c8
	DCD	0xd2e10fe3
	DCD	0xc8c4d005
	DCD	0xe3e48542
	;Code Words[5], Epilog Start Index[10], E[1], X[0], Function Length[51]=204 bytes
	;save_regp
	;save_regp
	;save_regp
	;nop
	;nop
	;nop
	;alloc_s
	;set_fp
	;save_reg
	;save_reg
	;save_regp
	;save_fplr_x
	;end
	;nop

	AREA	|.xdata|, DATA
|$unwind$?_Throw_bad_cast@std@@YAXXZ| DCD 0x2aa0001b
	DCD	0x42c844c8
	DCD	0xe3e340c8
	DCD	0xd2e10fe3
	DCD	0xc8c4d005
	DCD	0xe3e48542
	;Code Words[5], Epilog Start Index[10], E[1], X[0], Function Length[27]=108 bytes
	;save_regp
	;save_regp
	;save_regp
	;nop
	;nop
	;nop
	;alloc_s
	;set_fp
	;save_reg
	;save_reg
	;save_regp
	;save_fplr_x
	;end
	;nop

	AREA	|.xdata|, DATA
|$unwind$??_Gbad_cast@std@@UEAAPEAXI@Z| DCD 0x2a20001b
	DCD	0x40c842c8
	DCD	0xee3e3e3
	DCD	0xd005d2e1
	DCD	0x8542c8c4
	DCD	0xe3e3e3e4
	;Code Words[5], Epilog Start Index[8], E[1], X[0], Function Length[27]=108 bytes
	;save_regp
	;save_regp
	;nop
	;nop
	;nop
	;alloc_s
	;set_fp
	;save_reg
	;save_reg
	;save_regp
	;save_fplr_x
	;end
	;nop
	;nop
	;nop

	AREA	|.xdata|, DATA
|$unwind$??0bad_cast@std@@QEAA@AEBV01@@Z| DCD 0x2aa0001c
	DCD	0x42c844c8
	DCD	0xe3e340c8
	DCD	0xd2e10fe3
	DCD	0xc8c4d005
	DCD	0xe3e48542
	;Code Words[5], Epilog Start Index[10], E[1], X[0], Function Length[28]=112 bytes
	;save_regp
	;save_regp
	;save_regp
	;nop
	;nop
	;nop
	;alloc_s
	;set_fp
	;save_reg
	;save_reg
	;save_regp
	;save_fplr_x
	;end
	;nop

	AREA	|.xdata|, DATA
|$unwind$??1bad_cast@std@@UEAA@XZ| DCD 0x2a200014
	DCD	0x40c842c8
	DCD	0xee3e3e3
	DCD	0xd005d2e1
	DCD	0x8542c8c4
	DCD	0xe3e3e3e4
	;Code Words[5], Epilog Start Index[8], E[1], X[0], Function Length[20]=80 bytes
	;save_regp
	;save_regp
	;nop
	;nop
	;nop
	;alloc_s
	;set_fp
	;save_reg
	;save_reg
	;save_regp
	;save_fplr_x
	;end
	;nop
	;nop
	;nop

	AREA	|.xdata|, DATA
|$unwind$??0bad_cast@std@@QEAA@XZ| DCD 0x2a20001f
	DCD	0x40c842c8
	DCD	0xee3e3e3
	DCD	0xd005d2e1
	DCD	0x8542c8c4
	DCD	0xe3e3e3e4
	;Code Words[5], Epilog Start Index[8], E[1], X[0], Function Length[31]=124 bytes
	;save_regp
	;save_regp
	;nop
	;nop
	;nop
	;alloc_s
	;set_fp
	;save_reg
	;save_reg
	;save_regp
	;save_fplr_x
	;end
	;nop
	;nop
	;nop

	AREA	|.xdata|, DATA
|$unwind$?eof@?$_Narrow_char_traits@DH@std@@SAHXZ| DCD 0x18200011
	DCD	0xd005d2e1
	DCD	0x8542c8c4
	DCD	0xe3e3e3e4
	;Code Words[3], Epilog Start Index[0], E[1], X[0], Function Length[17]=68 bytes
	;set_fp
	;save_reg
	;save_reg
	;save_regp
	;save_fplr_x
	;end
	;nop
	;nop
	;nop

	AREA	|.xdata|, DATA
|$unwind$?eq_int_type@?$_Narrow_char_traits@DH@std@@SA_NAEBH0@Z| DCD 0x2aa00025
	DCD	0x42c844c8
	DCD	0xe3e340c8
	DCD	0xd2e10fe3
	DCD	0xc8c4d005
	DCD	0xe3e48542
	;Code Words[5], Epilog Start Index[10], E[1], X[0], Function Length[37]=148 bytes
	;save_regp
	;save_regp
	;save_regp
	;nop
	;nop
	;nop
	;alloc_s
	;set_fp
	;save_reg
	;save_reg
	;save_regp
	;save_fplr_x
	;end
	;nop

	AREA	|.xdata|, DATA
|$unwind$?to_char_type@?$_Narrow_char_traits@DH@std@@SADAEBH@Z| DCD 0x2a200019
	DCD	0x40c842c8
	DCD	0xee3e3e3
	DCD	0xd005d2e1
	DCD	0x8542c8c4
	DCD	0xe3e3e3e4
	;Code Words[5], Epilog Start Index[8], E[1], X[0], Function Length[25]=100 bytes
	;save_regp
	;save_regp
	;nop
	;nop
	;nop
	;alloc_s
	;set_fp
	;save_reg
	;save_reg
	;save_regp
	;save_fplr_x
	;end
	;nop
	;nop
	;nop

	AREA	|.xdata|, DATA
|$unwind$?length@?$_Narrow_char_traits@DH@std@@SA_KQEBD@Z| DCD 0x2a200017
	DCD	0x40c842c8
	DCD	0xee3e3e3
	DCD	0xd005d2e1
	DCD	0x8542c8c4
	DCD	0xe3e3e3e4
	;Code Words[5], Epilog Start Index[8], E[1], X[0], Function Length[23]=92 bytes
	;save_regp
	;save_regp
	;nop
	;nop
	;nop
	;alloc_s
	;set_fp
	;save_reg
	;save_reg
	;save_regp
	;save_fplr_x
	;end
	;nop
	;nop
	;nop

	AREA	|.xdata|, DATA
|$unwind$??_Gexception@std@@UEAAPEAXI@Z| DCD 0x2a20001b
	DCD	0x40c842c8
	DCD	0xee3e3e3
	DCD	0xd005d2e1
	DCD	0x8542c8c4
	DCD	0xe3e3e3e4
	;Code Words[5], Epilog Start Index[8], E[1], X[0], Function Length[27]=108 bytes
	;save_regp
	;save_regp
	;nop
	;nop
	;nop
	;alloc_s
	;set_fp
	;save_reg
	;save_reg
	;save_regp
	;save_fplr_x
	;end
	;nop
	;nop
	;nop

	AREA	|.xdata|, DATA
|$unwind$?what@exception@std@@UEBAPEBDXZ| DCD 0x2a200023
	DCD	0x40c842c8
	DCD	0xee3e3e3
	DCD	0xd005d2e1
	DCD	0x8542c8c4
	DCD	0xe3e3e3e4
	;Code Words[5], Epilog Start Index[8], E[1], X[0], Function Length[35]=140 bytes
	;save_regp
	;save_regp
	;nop
	;nop
	;nop
	;alloc_s
	;set_fp
	;save_reg
	;save_reg
	;save_regp
	;save_fplr_x
	;end
	;nop
	;nop
	;nop

	AREA	|.xdata|, DATA
|$unwind$??1exception@std@@UEAA@XZ| DCD 0x2a20001c
	DCD	0x40c842c8
	DCD	0xee3e3e3
	DCD	0xd005d2e1
	DCD	0x8542c8c4
	DCD	0xe3e3e3e4
	;Code Words[5], Epilog Start Index[8], E[1], X[0], Function Length[28]=112 bytes
	;save_regp
	;save_regp
	;nop
	;nop
	;nop
	;alloc_s
	;set_fp
	;save_reg
	;save_reg
	;save_regp
	;save_fplr_x
	;end
	;nop
	;nop
	;nop

	AREA	|.xdata|, DATA
|$unwind$??0exception@std@@QEAA@AEBV01@@Z| DCD 0x2aa00025
	DCD	0x42c844c8
	DCD	0xe3e340c8
	DCD	0xd2e10fe3
	DCD	0xc8c4d005
	DCD	0xe3e48542
	;Code Words[5], Epilog Start Index[10], E[1], X[0], Function Length[37]=148 bytes
	;save_regp
	;save_regp
	;save_regp
	;nop
	;nop
	;nop
	;alloc_s
	;set_fp
	;save_reg
	;save_reg
	;save_regp
	;save_fplr_x
	;end
	;nop

	AREA	|.xdata|, DATA
|$unwind$??0exception@std@@QEAA@QEBDH@Z| DCD 0x33200026
	DCD	0x44c846c8
	DCD	0x40c842c8
	DCD	0x10e3e3e3
	DCD	0xd005d2e1
	DCD	0x8542c8c4
	DCD	0xe3e3e3e4
	;Code Words[6], Epilog Start Index[12], E[1], X[0], Function Length[38]=152 bytes
	;save_regp
	;save_regp
	;save_regp
	;save_regp
	;nop
	;nop
	;nop
	;alloc_s
	;set_fp
	;save_reg
	;save_reg
	;save_regp
	;save_fplr_x
	;end
	;nop
	;nop
	;nop

	AREA	|.xdata|, DATA
|$unwind$sscanf_s| DCD 0x33300034
	DCD	0xe3e3e3e1
	DCD	0xc4d005d2
	DCD	0xe48b42c8
	DCD	0x5d20112
	DCD	0x42c8c4d0
	DCD	0xe3e3e48b
	DCD	|__GSHandlerCheck|
	DCD	0xffffff98
	;Code Words[6], Epilog Start Index[12], E[1], X[1], Function Length[52]=208 bytes
	;set_fp
	;nop
	;nop
	;nop
	;save_reg
	;save_reg
	;save_regp
	;save_fplr_x
	;end
	;alloc_s
	;alloc_s
	;save_reg
	;save_reg
	;save_regp
	;save_fplr_x
	;end
	;nop
	;nop

	AREA	|.rdata|, DATA, READONLY
|sscanf_s$rtcName$0| DCB 0x5f
	DCB	0x46
	DCB	0x6f
	DCB	0x72
	DCB	0x6d
	DCB	0x61
	DCB	0x74
	DCB	0x0
|sscanf_s$rtcName$1| DCB 0x5f
	DCB	0x41
	DCB	0x72
	DCB	0x67
	DCB	0x4c
	DCB	0x69
	DCB	0x73
	DCB	0x74
	DCB	0x0
	%	15
|sscanf_s$rtcVarDesc| DCD 0x38
	DCD	0x8
	DCQ	|sscanf_s$rtcName$1|, 0
	DCD	0x18
	DCD	0x8
	DCQ	|sscanf_s$rtcName$0|, 0
	%	96
|sscanf_s$rtcFrameData| DCD 0x2
	DCD	0x0
	DCQ	|sscanf_s$rtcVarDesc|, 0

	AREA	|.xdata|, DATA
|$unwind$vsscanf_s| DCD 0x33200020
	DCD	0x44c846c8
	DCD	0x40c842c8
	DCD	0x10e3e3e3
	DCD	0xd005d2e1
	DCD	0x8542c8c4
	DCD	0xe3e3e3e4
	;Code Words[6], Epilog Start Index[12], E[1], X[0], Function Length[32]=128 bytes
	;save_regp
	;save_regp
	;save_regp
	;save_regp
	;nop
	;nop
	;nop
	;alloc_s
	;set_fp
	;save_reg
	;save_reg
	;save_regp
	;save_fplr_x
	;end
	;nop
	;nop
	;nop

	AREA	|.xdata|, DATA
|$unwind$_vsscanf_s_l| DCD 0x1820002b
	DCD	0xd005d2e1
	DCD	0x8542c8c4
	DCD	0xe3e3e3e4
	;Code Words[3], Epilog Start Index[0], E[1], X[0], Function Length[43]=172 bytes
	;set_fp
	;save_reg
	;save_reg
	;save_regp
	;save_fplr_x
	;end
	;nop
	;nop
	;nop

	AREA	|.xdata|, DATA
|$unwind$__local_stdio_scanf_options| DCD 0x18200012
	DCD	0xd005d2e1
	DCD	0x8542c8c4
	DCD	0xe3e3e3e4
	;Code Words[3], Epilog Start Index[0], E[1], X[0], Function Length[18]=72 bytes
	;set_fp
	;save_reg
	;save_reg
	;save_regp
	;save_fplr_x
	;end
	;nop
	;nop
	;nop

	AREA	|.xdata|, DATA
|$unwind$?__empty_global_delete@@YAXPEAX_K@Z| DCD 0x2aa00017
	DCD	0x42c844c8
	DCD	0xe3e340c8
	DCD	0xd2e10fe3
	DCD	0xc8c4d005
	DCD	0xe3e48542
	;Code Words[5], Epilog Start Index[10], E[1], X[0], Function Length[23]=92 bytes
	;save_regp
	;save_regp
	;save_regp
	;nop
	;nop
	;nop
	;alloc_s
	;set_fp
	;save_reg
	;save_reg
	;save_regp
	;save_fplr_x
	;end
	;nop

	AREA	|.xdata|, DATA
|$unwind$?__empty_global_delete@@YAXPEAX@Z| DCD 0x2a200015
	DCD	0x40c842c8
	DCD	0xee3e3e3
	DCD	0xd005d2e1
	DCD	0x8542c8c4
	DCD	0xe3e3e3e4
	;Code Words[5], Epilog Start Index[8], E[1], X[0], Function Length[21]=84 bytes
	;save_regp
	;save_regp
	;nop
	;nop
	;nop
	;alloc_s
	;set_fp
	;save_reg
	;save_reg
	;save_regp
	;save_fplr_x
	;end
	;nop
	;nop
	;nop
; Function compile flags: /Odt

	AREA	|.text$mn|, CODE, ARM64

  00000		 |__JustMyCode_Default| PROC
  00000	d65f03c0	 ret

			 ENDP  ; |__JustMyCode_Default|

; Function compile flags: /Odtp /RTCsu /ZI

	AREA	|.text$mn|, CODE, ARM64

  00000		 |??1sentry@?$basic_istream@DU?$char_traits@D@std@@@std@@QEAA@XZ| PROC ; std::basic_istream<char,std::char_traits<char> >::sentry::~sentry
  00000		 |$LN3|
  00000	a9bd7bfd	 stp         fp,lr,[sp,#-0x30]!
  00004	a90157f4	 stp         x20,x21,[sp,#0x10]
  00008	f90013f6	 str         x22,[sp,#0x20]
  0000c	f90017fb	 str         x27,[sp,#0x28]
  00010	910003fd	 mov         fp,sp
  00014	d10383ff	 sub         sp,sp,#0xE0
  00018	910003fb	 mov         x27,sp
  0001c	b202e7f4	 movi        x20,#-0x3333333333333334
  00020	b202e7f5	 movi        x21,#-0x3333333333333334
  00024	a90057f4	 stp         x20,x21,[sp]
  00028	a90157f4	 stp         x20,x21,[sp,#0x10]
  0002c	f9000760	 str         x0,[x27,#8]
  00030	f9400760	 ldr         x0,[x27,#8]
  00034	94000000	 bl          |??1_Sentry_base@?$basic_istream@DU?$char_traits@D@std@@@std@@QEAA@XZ|
  00038	910003bf	 mov         sp,fp
  0003c	f94017fb	 ldr         x27,[sp,#0x28]
  00040	f94013f6	 ldr         x22,[sp,#0x20]
  00044	a94157f4	 ldp         x20,x21,[sp,#0x10]
  00048	a8c37bfd	 ldp         fp,lr,[sp],#0x30
  0004c	d65f03c0	 ret

			 ENDP  ; |??1sentry@?$basic_istream@DU?$char_traits@D@std@@@std@@QEAA@XZ|, std::basic_istream<char,std::char_traits<char> >::sentry::~sentry

; Function compile flags: /Odtp /RTCsu /ZI
; File C:\Program Files\Microsoft Visual Studio\2022\Community\VC\Tools\MSVC\14.34.31933\include\istream

	AREA	|.text$mn|, CODE, ARM64

  00000		 |??Bsentry@?$basic_istream@DU?$char_traits@D@std@@@std@@QEBA_NXZ| PROC ; std::basic_istream<char,std::char_traits<char> >::sentry::operator bool

; 103  :         explicit __CLR_OR_THIS_CALL operator bool() const {

  00000		 |$LN3|
  00000	a9bd7bfd	 stp         fp,lr,[sp,#-0x30]!
  00004	a90157f4	 stp         x20,x21,[sp,#0x10]
  00008	f90013f6	 str         x22,[sp,#0x20]
  0000c	f90017fb	 str         x27,[sp,#0x28]
  00010	910003fd	 mov         fp,sp
  00014	d10383ff	 sub         sp,sp,#0xE0
  00018	910003fb	 mov         x27,sp
  0001c	b202e7f4	 movi        x20,#-0x3333333333333334
  00020	b202e7f5	 movi        x21,#-0x3333333333333334
  00024	a90057f4	 stp         x20,x21,[sp]
  00028	a90157f4	 stp         x20,x21,[sp,#0x10]
  0002c	f9000760	 str         x0,[x27,#8]
  00030	90000008	 adrp        x8,__18E32B2B_istream
  00034	91000100	 add         x0,x8,__18E32B2B_istream
  00038	94000000	 bl          __CheckForDebuggerJustMyCode

; 104  :             return _Ok;

  0003c	f9400768	 ldr         x8,[x27,#8]
  00040	91002108	 add         x8,x8,#8
  00044	39400100	 ldrb        w0,[x8]
  00048	910003bf	 mov         sp,fp
  0004c	f94017fb	 ldr         x27,[sp,#0x28]
  00050	f94013f6	 ldr         x22,[sp,#0x20]
  00054	a94157f4	 ldp         x20,x21,[sp,#0x10]
  00058	a8c37bfd	 ldp         fp,lr,[sp],#0x30
  0005c	d65f03c0	 ret

			 ENDP  ; |??Bsentry@?$basic_istream@DU?$char_traits@D@std@@@std@@QEBA_NXZ|, std::basic_istream<char,std::char_traits<char> >::sentry::operator bool

; Function compile flags: /Odtp /RTCsu /ZI
; File C:\Program Files\Microsoft Visual Studio\2022\Community\VC\Tools\MSVC\14.34.31933\include\istream

	AREA	|.text$mn|, CODE, ARM64

  00000		 |??0sentry@?$basic_istream@DU?$char_traits@D@std@@@std@@QEAA@AEAV12@_N@Z| PROC ; std::basic_istream<char,std::char_traits<char> >::sentry::sentry

; 101  :             : _Sentry_base(_Istr), _Ok(_Sentry_base::_Myistr._Ipfx(_Noskip)) {}

  00000		 |$LN4|
  00000	a9bd7bfd	 stp         fp,lr,[sp,#-0x30]!
  00004	a90157f4	 stp         x20,x21,[sp,#0x10]
  00008	f90013f6	 str         x22,[sp,#0x20]
  0000c	f90017fb	 str         x27,[sp,#0x28]
  00010	910003fd	 mov         fp,sp
  00014	d10443ff	 sub         sp,sp,#0x110
  00018	910003fb	 mov         x27,sp
  0001c	aa0003f4	 mov         x20,x0
  00020	aa0103f5	 mov         x21,x1
  00024	aa0203f6	 mov         x22,x2
  00028	910003e0	 mov         x0,sp
  0002c	b202e7e1	 movi        x1,#-0x3333333333333334
  00030	d2800a02	 mov         x2,#0x50
  00034	94000000	 bl          __RTC_memset
  00038	aa1403e0	 mov         x0,x20
  0003c	aa1503e1	 mov         x1,x21
  00040	aa1603e2	 mov         x2,x22
  00044	92800030	 mov         xip0,#-2
  00048	f9007f70	 str         xip0,[x27,#0xF8]
  0004c	f9001760	 str         x0,[x27,#0x28]
  00050	f9000761	 str         x1,[x27,#8]
  00054	53001c48	 uxtb        w8,w2
  00058	39006368	 strb        w8,[x27,#0x18]
  0005c	90000008	 adrp        x8,__18E32B2B_istream
  00060	91000100	 add         x0,x8,__18E32B2B_istream
  00064	94000000	 bl          __CheckForDebuggerJustMyCode
  00068	f9400761	 ldr         x1,[x27,#8]
  0006c	f9401760	 ldr         x0,[x27,#0x28]
  00070	94000000	 bl          |??0_Sentry_base@?$basic_istream@DU?$char_traits@D@std@@@std@@QEAA@AEAV12@@Z|
  00074	d503201f	 nop
  00078	39406361	 ldrb        w1,[x27,#0x18]
  0007c	f9401768	 ldr         x8,[x27,#0x28]
  00080	f9400100	 ldr         x0,[x8]
  00084	90000008	 adrp        x8,|__imp_?_Ipfx@?$basic_istream@DU?$char_traits@D@std@@@std@@QEAA_N_N@Z|
  00088	f9400108	 ldr         x8,[x8,|__imp_?_Ipfx@?$basic_istream@DU?$char_traits@D@std@@@std@@QEAA_N_N@Z|]
  0008c	d63f0100	 blr         x8
  00090	53001c09	 uxtb        w9,w0
  00094	f9401768	 ldr         x8,[x27,#0x28]
  00098	91002108	 add         x8,x8,#8
  0009c	39000109	 strb        w9,[x8]
  000a0	f9401760	 ldr         x0,[x27,#0x28]
  000a4	910003bf	 mov         sp,fp
  000a8	f94017fb	 ldr         x27,[sp,#0x28]
  000ac	f94013f6	 ldr         x22,[sp,#0x20]
  000b0	a94157f4	 ldp         x20,x21,[sp,#0x10]
  000b4	a8c37bfd	 ldp         fp,lr,[sp],#0x30
  000b8	d65f03c0	 ret

			 ENDP  ; |??0sentry@?$basic_istream@DU?$char_traits@D@std@@@std@@QEAA@AEAV12@_N@Z|, std::basic_istream<char,std::char_traits<char> >::sentry::sentry

; Function compile flags: /Odtp /RTCsu /ZI

	AREA	|.text$x|, DATA

  00000		 |?dtor$0@?0???0sentry@?$basic_istream@DU?$char_traits@D@std@@@std@@QEAA@AEAV12@_N@Z@4HA| PROC ; `std::basic_istream<char,std::char_traits<char> >::sentry::sentry'::`1'::dtor$0
  00000	a9bd7bfd	 stp         fp,lr,[sp,#-0x30]!
  00004	a90157f4	 stp         x20,x21,[sp,#0x10]
  00008	f90013f6	 str         x22,[sp,#0x20]
  0000c	f90017fb	 str         x27,[sp,#0x28]
  00010	f9401760	 ldr         x0,[x27,#0x28]
  00014	94000000	 bl          |??1_Sentry_base@?$basic_istream@DU?$char_traits@D@std@@@std@@QEAA@XZ|
  00018	f94017fb	 ldr         x27,[sp,#0x28]
  0001c	f94013f6	 ldr         x22,[sp,#0x20]
  00020	a94157f4	 ldp         x20,x21,[sp,#0x10]
  00024	a8c37bfd	 ldp         fp,lr,[sp],#0x30
  00028	d65f03c0	 ret

			 ENDP  ; |??0sentry@?$basic_istream@DU?$char_traits@D@std@@@std@@QEAA@AEAV12@_N@Z|, std::basic_istream<char,std::char_traits<char> >::sentry::sentry

; Function compile flags: /Odtp /RTCsu /ZI
; File C:\Program Files\Microsoft Visual Studio\2022\Community\VC\Tools\MSVC\14.34.31933\include\istream

	AREA	|.text$mn|, CODE, ARM64

  00000		 |??1_Sentry_base@?$basic_istream@DU?$char_traits@D@std@@@std@@QEAA@XZ| PROC ; std::basic_istream<char,std::char_traits<char> >::_Sentry_base::~_Sentry_base

; 86   :         __CLR_OR_THIS_CALL ~_Sentry_base() noexcept {

  00000		 |$LN4|
  00000	a9bd7bfd	 stp         fp,lr,[sp,#-0x30]!
  00004	a90157f4	 stp         x20,x21,[sp,#0x10]
  00008	f90013f6	 str         x22,[sp,#0x20]
  0000c	f90017fb	 str         x27,[sp,#0x28]
  00010	910003fd	 mov         fp,sp
  00014	d10403ff	 sub         sp,sp,#0x100
  00018	910003fb	 mov         x27,sp
  0001c	b202e7f4	 movi        x20,#-0x3333333333333334
  00020	b202e7f5	 movi        x21,#-0x3333333333333334
  00024	a90057f4	 stp         x20,x21,[sp]
  00028	a90157f4	 stp         x20,x21,[sp,#0x10]
  0002c	a90257f4	 stp         x20,x21,[sp,#0x20]
  00030	a90357f4	 stp         x20,x21,[sp,#0x30]
  00034	92800030	 mov         xip0,#-2
  00038	f9007770	 str         xip0,[x27,#0xE8]
  0003c	f9000760	 str         x0,[x27,#8]
  00040	90000008	 adrp        x8,__18E32B2B_istream
  00044	91000100	 add         x0,x8,__18E32B2B_istream
  00048	94000000	 bl          __CheckForDebuggerJustMyCode

; 87   :             const auto _Rdbuf = _Myistr.rdbuf();

  0004c	f9400768	 ldr         x8,[x27,#8]
  00050	f9400108	 ldr         x8,[x8]
  00054	f9007f68	 str         x8,[x27,#0xF8]
  00058	f9407f68	 ldr         x8,[x27,#0xF8]
  0005c	f9400108	 ldr         x8,[x8]
  00060	91001108	 add         x8,x8,#4
  00064	b9400108	 ldr         w8,[x8]
  00068	93407d09	 sxtw        x9,w8
  0006c	f9407f68	 ldr         x8,[x27,#0xF8]
  00070	8b090100	 add         x0,x8,x9
  00074	90000008	 adrp        x8,|__imp_?rdbuf@?$basic_ios@DU?$char_traits@D@std@@@std@@QEBAPEAV?$basic_streambuf@DU?$char_traits@D@std@@@2@XZ|
  00078	f9400108	 ldr         x8,[x8,|__imp_?rdbuf@?$basic_ios@DU?$char_traits@D@std@@@std@@QEBAPEAV?$basic_streambuf@DU?$char_traits@D@std@@@2@XZ|]
  0007c	d63f0100	 blr         x8
  00080	f9000f60	 str         x0,[x27,#0x18]

; 88   :             if (_Rdbuf) {

  00084	f9400f68	 ldr         x8,[x27,#0x18]
  00088	f100011f	 cmp         x8,#0
  0008c	54000000	 beq         |$LN2@Sentry_bas|

; 89   :                 _Rdbuf->_Unlock();

  00090	f9400f68	 ldr         x8,[x27,#0x18]
  00094	f9400108	 ldr         x8,[x8]
  00098	91004108	 add         x8,x8,#0x10
  0009c	f9400f60	 ldr         x0,[x27,#0x18]
  000a0	f9400108	 ldr         x8,[x8]
  000a4	d63f0100	 blr         x8
  000a8		 |$LN2@Sentry_bas|
  000a8	910003bf	 mov         sp,fp
  000ac	f94017fb	 ldr         x27,[sp,#0x28]
  000b0	f94013f6	 ldr         x22,[sp,#0x20]
  000b4	a94157f4	 ldp         x20,x21,[sp,#0x10]
  000b8	a8c37bfd	 ldp         fp,lr,[sp],#0x30
  000bc	d65f03c0	 ret

			 ENDP  ; |??1_Sentry_base@?$basic_istream@DU?$char_traits@D@std@@@std@@QEAA@XZ|, std::basic_istream<char,std::char_traits<char> >::_Sentry_base::~_Sentry_base

; Function compile flags: /Odtp /RTCsu /ZI
; File C:\Program Files\Microsoft Visual Studio\2022\Community\VC\Tools\MSVC\14.34.31933\include\istream

	AREA	|.text$mn|, CODE, ARM64

  00000		 |??0_Sentry_base@?$basic_istream@DU?$char_traits@D@std@@@std@@QEAA@AEAV12@@Z| PROC ; std::basic_istream<char,std::char_traits<char> >::_Sentry_base::_Sentry_base

; 79   :         __CLR_OR_THIS_CALL _Sentry_base(basic_istream& _Istr) : _Myistr(_Istr) {

  00000		 |$LN4|
  00000	a9bd7bfd	 stp         fp,lr,[sp,#-0x30]!
  00004	a90157f4	 stp         x20,x21,[sp,#0x10]
  00008	f90013f6	 str         x22,[sp,#0x20]
  0000c	f90017fb	 str         x27,[sp,#0x28]
  00010	910003fd	 mov         fp,sp
  00014	d10403ff	 sub         sp,sp,#0x100
  00018	910003fb	 mov         x27,sp
  0001c	b202e7f4	 movi        x20,#-0x3333333333333334
  00020	b202e7f5	 movi        x21,#-0x3333333333333334
  00024	a90057f4	 stp         x20,x21,[sp]
  00028	a90157f4	 stp         x20,x21,[sp,#0x10]
  0002c	a90257f4	 stp         x20,x21,[sp,#0x20]
  00030	a90357f4	 stp         x20,x21,[sp,#0x30]
  00034	f9000f60	 str         x0,[x27,#0x18]
  00038	f9000761	 str         x1,[x27,#8]
  0003c	90000008	 adrp        x8,__18E32B2B_istream
  00040	91000100	 add         x0,x8,__18E32B2B_istream
  00044	94000000	 bl          __CheckForDebuggerJustMyCode
  00048	f9400f69	 ldr         x9,[x27,#0x18]
  0004c	f9400768	 ldr         x8,[x27,#8]
  00050	f9000128	 str         x8,[x9]

; 80   :             const auto _Rdbuf = _Myistr.rdbuf();

  00054	f9400f68	 ldr         x8,[x27,#0x18]
  00058	f9400108	 ldr         x8,[x8]
  0005c	f9007f68	 str         x8,[x27,#0xF8]
  00060	f9407f68	 ldr         x8,[x27,#0xF8]
  00064	f9400108	 ldr         x8,[x8]
  00068	91001108	 add         x8,x8,#4
  0006c	b9400108	 ldr         w8,[x8]
  00070	93407d09	 sxtw        x9,w8
  00074	f9407f68	 ldr         x8,[x27,#0xF8]
  00078	8b090100	 add         x0,x8,x9
  0007c	90000008	 adrp        x8,|__imp_?rdbuf@?$basic_ios@DU?$char_traits@D@std@@@std@@QEBAPEAV?$basic_streambuf@DU?$char_traits@D@std@@@2@XZ|
  00080	f9400108	 ldr         x8,[x8,|__imp_?rdbuf@?$basic_ios@DU?$char_traits@D@std@@@std@@QEBAPEAV?$basic_streambuf@DU?$char_traits@D@std@@@2@XZ|]
  00084	d63f0100	 blr         x8
  00088	f9001760	 str         x0,[x27,#0x28]

; 81   :             if (_Rdbuf) {

  0008c	f9401768	 ldr         x8,[x27,#0x28]
  00090	f100011f	 cmp         x8,#0
  00094	54000000	 beq         |$LN2@Sentry_bas|

; 82   :                 _Rdbuf->_Lock();

  00098	f9401768	 ldr         x8,[x27,#0x28]
  0009c	f9400108	 ldr         x8,[x8]
  000a0	91002108	 add         x8,x8,#8
  000a4	f9401760	 ldr         x0,[x27,#0x28]
  000a8	f9400108	 ldr         x8,[x8]
  000ac	d63f0100	 blr         x8
  000b0		 |$LN2@Sentry_bas|

; 83   :             }
; 84   :         }

  000b0	f9400f60	 ldr         x0,[x27,#0x18]
  000b4	910003bf	 mov         sp,fp
  000b8	f94017fb	 ldr         x27,[sp,#0x28]
  000bc	f94013f6	 ldr         x22,[sp,#0x20]
  000c0	a94157f4	 ldp         x20,x21,[sp,#0x10]
  000c4	a8c37bfd	 ldp         fp,lr,[sp],#0x30
  000c8	d65f03c0	 ret

			 ENDP  ; |??0_Sentry_base@?$basic_istream@DU?$char_traits@D@std@@@std@@QEAA@AEAV12@@Z|, std::basic_istream<char,std::char_traits<char> >::_Sentry_base::_Sentry_base

; Function compile flags: /Odtp /RTCsu /ZI
; File C:\Program Files\Microsoft Visual Studio\2022\Community\VC\Tools\MSVC\14.34.31933\include\istream

	AREA	|.text$mn|, CODE, ARM64

  00000		 |??$_Istream_extract_into_buffer@DU?$char_traits@D@std@@@std@@YAAEAV?$basic_istream@DU?$char_traits@D@std@@@0@AEAV10@_KPEAD@Z| PROC ; std::_Istream_extract_into_buffer<char,std::char_traits<char> >

; 778  :     basic_istream<_Elem, _Traits>& _Istr, size_t _Size, _Elem* _Str) {

  00000		 |$LN22|
  00000	a9bd7bfd	 stp         fp,lr,[sp,#-0x30]!
  00004	a90157f4	 stp         x20,x21,[sp,#0x10]
  00008	f90013f6	 str         x22,[sp,#0x20]
  0000c	f90017fb	 str         x27,[sp,#0x28]
  00010	910003fd	 mov         fp,sp
  00014	94000000	 bl          __security_push_cookie
  00018	d10783ff	 sub         sp,sp,#0x1E0
  0001c	910003fb	 mov         x27,sp
  00020	aa0003f4	 mov         x20,x0
  00024	aa0103f5	 mov         x21,x1
  00028	aa0203f6	 mov         x22,x2
  0002c	910003e0	 mov         x0,sp
  00030	b202e7e1	 movi        x1,#-0x3333333333333334
  00034	d2802402	 mov         x2,#0x120
  00038	94000000	 bl          __RTC_memset
  0003c	aa1403e0	 mov         x0,x20
  00040	aa1503e1	 mov         x1,x21
  00044	aa1603e2	 mov         x2,x22
  00048	92800030	 mov         xip0,#-2
  0004c	f900e370	 str         xip0,[x27,#0x1C0]
  00050	f9000760	 str         x0,[x27,#8]
  00054	f9000f61	 str         x1,[x27,#0x18]
  00058	f9001762	 str         x2,[x27,#0x28]
  0005c	90000008	 adrp        x8,__18E32B2B_istream
  00060	91000100	 add         x0,x8,__18E32B2B_istream
  00064	94000000	 bl          __CheckForDebuggerJustMyCode

; 779  :     using _Myis              = basic_istream<_Elem, _Traits>;
; 780  :     using _Ctype             = ctype<_Elem>;
; 781  :     ios_base::iostate _State = ios_base::goodbit;

  00068	52800008	 mov         w8,#0
  0006c	b9003b68	 str         w8,[x27,#0x38]

; 782  :     size_t _Current          = 0;

  00070	d2800008	 mov         x8,#0
  00074	f9002768	 str         x8,[x27,#0x48]

; 783  :     const typename _Myis::sentry _Ok(_Istr);

  00078	52800002	 mov         w2,#0
  0007c	f9400761	 ldr         x1,[x27,#8]
  00080	91016360	 add         x0,x27,#0x58
  00084	94000000	 bl          |??0sentry@?$basic_istream@DU?$char_traits@D@std@@@std@@QEAA@AEAV12@_N@Z|
  00088	d503201f	 nop

; 784  : 
; 785  :     if (_Ok) { // state okay, extract characters

  0008c	91016360	 add         x0,x27,#0x58
  00090	94000000	 bl          |??Bsentry@?$basic_istream@DU?$char_traits@D@std@@@std@@QEBA_NXZ|
  00094	53001c08	 uxtb        w8,w0
  00098	2a0803e8	 mov         w8,w8
  0009c	7100011f	 cmp         w8,#0
  000a0	54000000	 beq         |$LN5@Istream_ex|

; 786  :         const _Ctype& _Ctype_fac = _STD use_facet<_Ctype>(_Istr.getloc());

  000a4	f9400768	 ldr         x8,[x27,#8]
  000a8	f9400108	 ldr         x8,[x8]
  000ac	91001108	 add         x8,x8,#4
  000b0	b9400108	 ldr         w8,[x8]
  000b4	93407d09	 sxtw        x9,w8
  000b8	f9400768	 ldr         x8,[x27,#8]
  000bc	8b090100	 add         x0,x8,x9
  000c0	91062361	 add         x1,x27,#0x188
  000c4	90000008	 adrp        x8,|__imp_?getloc@ios_base@std@@QEBA?AVlocale@2@XZ|
  000c8	f9400108	 ldr         x8,[x8,|__imp_?getloc@ios_base@std@@QEBA?AVlocale@2@XZ|]
  000cc	d63f0100	 blr         x8
  000d0	f900eb60	 str         x0,[x27,#0x1D0]
  000d4	f940eb68	 ldr         x8,[x27,#0x1D0]
  000d8	f900ef68	 str         x8,[x27,#0x1D8]
  000dc	f940ef60	 ldr         x0,[x27,#0x1D8]
  000e0	94000000	 bl          |??$use_facet@V?$ctype@D@std@@@std@@YAAEBV?$ctype@D@0@AEBVlocale@0@@Z|
  000e4	f9003b60	 str         x0,[x27,#0x70]
  000e8	91062360	 add         x0,x27,#0x188
  000ec	94000000	 bl          |??1locale@std@@QEAA@XZ|
  000f0	d503201f	 nop

; 787  : 
; 788  :         _TRY_IO_BEGIN
; 789  :         size_t _Count       = _Size;

  000f4	f9400f68	 ldr         x8,[x27,#0x18]
  000f8	f9004368	 str         x8,[x27,#0x80]

; 790  :         const size_t _Width = static_cast<size_t>(_Istr.width());

  000fc	f9400768	 ldr         x8,[x27,#8]
  00100	f9400108	 ldr         x8,[x8]
  00104	91001108	 add         x8,x8,#4
  00108	b9400108	 ldr         w8,[x8]
  0010c	93407d09	 sxtw        x9,w8
  00110	f9400768	 ldr         x8,[x27,#8]
  00114	8b090100	 add         x0,x8,x9
  00118	90000008	 adrp        x8,|__imp_?width@ios_base@std@@QEBA_JXZ|
  0011c	f9400108	 ldr         x8,[x8,|__imp_?width@ios_base@std@@QEBA_JXZ|]
  00120	d63f0100	 blr         x8
  00124	f900eb60	 str         x0,[x27,#0x1D0]
  00128	f940eb68	 ldr         x8,[x27,#0x1D0]
  0012c	f9004b68	 str         x8,[x27,#0x90]

; 791  :         if (_Width > 0 && _Width < _Size) {

  00130	f9404b68	 ldr         x8,[x27,#0x90]
  00134	f100011f	 cmp         x8,#0
  00138	54000009	 bls         |$LN7@Istream_ex|
  0013c	f9400f69	 ldr         x9,[x27,#0x18]
  00140	f9404b68	 ldr         x8,[x27,#0x90]
  00144	eb09011f	 cmp         x8,x9
  00148	54000002	 bhs         |$LN7@Istream_ex|

; 792  :             _Count = _Width;

  0014c	f9404b68	 ldr         x8,[x27,#0x90]
  00150	f9004368	 str         x8,[x27,#0x80]
  00154		 |$LN7@Istream_ex|

; 793  :         }
; 794  : 
; 795  :         typename _Myis::int_type _Meta = _Istr.rdbuf()->sgetc();

  00154	f9400768	 ldr         x8,[x27,#8]
  00158	f9400108	 ldr         x8,[x8]
  0015c	91001108	 add         x8,x8,#4
  00160	b9400108	 ldr         w8,[x8]
  00164	93407d09	 sxtw        x9,w8
  00168	f9400768	 ldr         x8,[x27,#8]
  0016c	8b090100	 add         x0,x8,x9
  00170	90000008	 adrp        x8,|__imp_?rdbuf@?$basic_ios@DU?$char_traits@D@std@@@std@@QEBAPEAV?$basic_streambuf@DU?$char_traits@D@std@@@2@XZ|
  00174	f9400108	 ldr         x8,[x8,|__imp_?rdbuf@?$basic_ios@DU?$char_traits@D@std@@@std@@QEBAPEAV?$basic_streambuf@DU?$char_traits@D@std@@@2@XZ|]
  00178	d63f0100	 blr         x8
  0017c	f900eb60	 str         x0,[x27,#0x1D0]
  00180	f940eb60	 ldr         x0,[x27,#0x1D0]
  00184	90000008	 adrp        x8,|__imp_?sgetc@?$basic_streambuf@DU?$char_traits@D@std@@@std@@QEAAHXZ|
  00188	f9400108	 ldr         x8,[x8,|__imp_?sgetc@?$basic_streambuf@DU?$char_traits@D@std@@@std@@QEAAHXZ|]
  0018c	d63f0100	 blr         x8
  00190	b901db60	 str         w0,[x27,#0x1D8]
  00194	b941db68	 ldr         w8,[x27,#0x1D8]
  00198	b900a368	 str         w8,[x27,#0xA0]

; 796  :         _Elem _Ch;
; 797  : 
; 798  :         for (; _Current < _Count - 1; _Meta = _Istr.rdbuf()->snextc(), (void) ++_Current) {

  0019c	14000016	 b           |$LN4@Istream_ex|
  001a0		 |$LN2@Istream_ex|
  001a0	f9400768	 ldr         x8,[x27,#8]
  001a4	f9400108	 ldr         x8,[x8]
  001a8	91001108	 add         x8,x8,#4
  001ac	b9400108	 ldr         w8,[x8]
  001b0	93407d09	 sxtw        x9,w8
  001b4	f9400768	 ldr         x8,[x27,#8]
  001b8	8b090100	 add         x0,x8,x9
  001bc	90000008	 adrp        x8,|__imp_?rdbuf@?$basic_ios@DU?$char_traits@D@std@@@std@@QEBAPEAV?$basic_streambuf@DU?$char_traits@D@std@@@2@XZ|
  001c0	f9400108	 ldr         x8,[x8,|__imp_?rdbuf@?$basic_ios@DU?$char_traits@D@std@@@std@@QEBAPEAV?$basic_streambuf@DU?$char_traits@D@std@@@2@XZ|]
  001c4	d63f0100	 blr         x8
  001c8	f900eb60	 str         x0,[x27,#0x1D0]
  001cc	f940eb60	 ldr         x0,[x27,#0x1D0]
  001d0	90000008	 adrp        x8,|__imp_?snextc@?$basic_streambuf@DU?$char_traits@D@std@@@std@@QEAAHXZ|
  001d4	f9400108	 ldr         x8,[x8,|__imp_?snextc@?$basic_streambuf@DU?$char_traits@D@std@@@std@@QEAAHXZ|]
  001d8	d63f0100	 blr         x8
  001dc	b901db60	 str         w0,[x27,#0x1D8]
  001e0	b941db68	 ldr         w8,[x27,#0x1D8]
  001e4	b900a368	 str         w8,[x27,#0xA0]
  001e8	f9402768	 ldr         x8,[x27,#0x48]
  001ec	91000508	 add         x8,x8,#1
  001f0	f9002768	 str         x8,[x27,#0x48]
  001f4		 |$LN4@Istream_ex|
  001f4	f9404368	 ldr         x8,[x27,#0x80]
  001f8	d1000509	 sub         x9,x8,#1
  001fc	f9402768	 ldr         x8,[x27,#0x48]
  00200	eb09011f	 cmp         x8,x9
  00204	54000002	 bhs         |$LN3@Istream_ex|

; 799  :             if (_Traits::eq_int_type(_Traits::eof(), _Meta)) { // end of file, quit

  00208	94000000	 bl          |?eof@?$_Narrow_char_traits@DH@std@@SAHXZ|
  0020c	2a0003e0	 mov         w0,w0
  00210	b901a360	 str         w0,[x27,#0x1A0]
  00214	91028361	 add         x1,x27,#0xA0
  00218	91068360	 add         x0,x27,#0x1A0
  0021c	94000000	 bl          |?eq_int_type@?$_Narrow_char_traits@DH@std@@SA_NAEBH0@Z|
  00220	53001c08	 uxtb        w8,w0
  00224	2a0803e8	 mov         w8,w8
  00228	7100011f	 cmp         w8,#0
  0022c	54000000	 beq         |$LN8@Istream_ex|

; 800  :                 _State |= ios_base::eofbit;

  00230	b9403b68	 ldr         w8,[x27,#0x38]
  00234	32000108	 orr         w8,w8,#1
  00238	b9003b68	 str         w8,[x27,#0x38]

; 801  :                 break;

  0023c	14000022	 b           |$LN3@Istream_ex|
  00240	14000020	 b           |$LN9@Istream_ex|
  00244		 |$LN8@Istream_ex|

; 802  :             } else if (_Ctype_fac.is(_Ctype::space, _Ch = _Traits::to_char_type(_Meta)) || _Ch == _Elem()) {

  00244	91028360	 add         x0,x27,#0xA0
  00248	94000000	 bl          |?to_char_type@?$_Narrow_char_traits@DH@std@@SADAEBH@Z|
  0024c	13001c08	 sxtb        w8,w0
  00250	3902b368	 strb        w8,[x27,#0xAC]
  00254	39c2b362	 ldrsb       w2,[x27,#0xAC]
  00258	52800901	 mov         w1,#0x48
  0025c	f9403b60	 ldr         x0,[x27,#0x70]
  00260	90000008	 adrp        x8,|__imp_?is@?$ctype@D@std@@QEBA_NFD@Z|
  00264	f9400108	 ldr         x8,[x8,|__imp_?is@?$ctype@D@std@@QEBA_NFD@Z|]
  00268	d63f0100	 blr         x8
  0026c	53001c08	 uxtb        w8,w0
  00270	39073368	 strb        w8,[x27,#0x1CC]
  00274	39473368	 ldrb        w8,[x27,#0x1CC]
  00278	2a0803e8	 mov         w8,w8
  0027c	7100011f	 cmp         w8,#0
  00280	54000001	 bne         |$LN12@Istream_ex|
  00284	39c2b368	 ldrsb       w8,[x27,#0xAC]
  00288	2a0803e8	 mov         w8,w8
  0028c	7100011f	 cmp         w8,#0
  00290	54000001	 bne         |$LN10@Istream_ex|
  00294		 |$LN12@Istream_ex|

; 803  :                 break; // whitespace or nul, quit

  00294	1400000c	 b           |$LN3@Istream_ex|

; 804  :             } else {

  00298	1400000a	 b           |$LN9@Istream_ex|
  0029c		 |$LN10@Istream_ex|

; 805  :                 _Str[_Current] = _Traits::to_char_type(_Meta); // add it to string

  0029c	91028360	 add         x0,x27,#0xA0
  002a0	94000000	 bl          |?to_char_type@?$_Narrow_char_traits@DH@std@@SADAEBH@Z|
  002a4	13001c0a	 sxtb        w10,w0
  002a8	f9402769	 ldr         x9,[x27,#0x48]
  002ac	d2800028	 mov         x8,#1
  002b0	9b087d29	 mul         x9,x9,x8
  002b4	f9401768	 ldr         x8,[x27,#0x28]
  002b8	8b090108	 add         x8,x8,x9
  002bc	3900010a	 strb        w10,[x8]
  002c0		 |$LN9@Istream_ex|

; 806  :             }
; 807  :         }

  002c0	17ffffb8	 b           |$LN2@Istream_ex|
  002c4		 |$LN3@Istream_ex|
  002c4	14000001	 b           |$LN5@Istream_ex|
  002c8		 |$LN20@Istream_ex|
  002c8		 |$LN5@Istream_ex|

; 808  :         _CATCH_IO_(ios_base, _Istr)
; 809  :     }
; 810  :     _Analysis_assume_(static_cast<size_t>(_Current) < _Size); // TRANSITION, VSO-860375
; 811  :     _Str[_Current] = _Elem(); // add terminating null character

  002c8	f9402769	 ldr         x9,[x27,#0x48]
  002cc	d2800028	 mov         x8,#1
  002d0	9b087d29	 mul         x9,x9,x8
  002d4	f9401768	 ldr         x8,[x27,#0x28]
  002d8	8b090109	 add         x9,x8,x9
  002dc	52800008	 mov         w8,#0
  002e0	39000128	 strb        w8,[x9]

; 812  :     _Istr.width(0);

  002e4	f9400768	 ldr         x8,[x27,#8]
  002e8	f9400108	 ldr         x8,[x8]
  002ec	91001108	 add         x8,x8,#4
  002f0	b9400108	 ldr         w8,[x8]
  002f4	93407d09	 sxtw        x9,w8
  002f8	f9400768	 ldr         x8,[x27,#8]
  002fc	8b090100	 add         x0,x8,x9
  00300	d2800001	 mov         x1,#0
  00304	90000008	 adrp        x8,|__imp_?width@ios_base@std@@QEAA_J_J@Z|
  00308	f9400108	 ldr         x8,[x8,|__imp_?width@ios_base@std@@QEAA_J_J@Z|]
  0030c	d63f0100	 blr         x8

; 813  :     if (_Current == 0) {

  00310	f9402768	 ldr         x8,[x27,#0x48]
  00314	f100011f	 cmp         x8,#0
  00318	54000001	 bne         |$LN13@Istream_ex|

; 814  :         _State |= ios_base::failbit;

  0031c	b9403b68	 ldr         w8,[x27,#0x38]
  00320	321f0108	 orr         w8,w8,#2
  00324	b9003b68	 str         w8,[x27,#0x38]
  00328		 |$LN13@Istream_ex|

; 815  :     }
; 816  :     _Istr.setstate(_State);

  00328	f9400768	 ldr         x8,[x27,#8]
  0032c	f9400108	 ldr         x8,[x8]
  00330	91001108	 add         x8,x8,#4
  00334	b9400108	 ldr         w8,[x8]
  00338	93407d09	 sxtw        x9,w8
  0033c	f9400768	 ldr         x8,[x27,#8]
  00340	8b090100	 add         x0,x8,x9
  00344	52800002	 mov         w2,#0
  00348	b9403b61	 ldr         w1,[x27,#0x38]
  0034c	90000008	 adrp        x8,|__imp_?setstate@?$basic_ios@DU?$char_traits@D@std@@@std@@QEAAXH_N@Z|
  00350	f9400108	 ldr         x8,[x8,|__imp_?setstate@?$basic_ios@DU?$char_traits@D@std@@@std@@QEAAXH_N@Z|]
  00354	d63f0100	 blr         x8

; 817  :     return _Istr;

  00358	f9400768	 ldr         x8,[x27,#8]
  0035c	f900db68	 str         x8,[x27,#0x1B0]
  00360	91016360	 add         x0,x27,#0x58
  00364	94000000	 bl          |??1sentry@?$basic_istream@DU?$char_traits@D@std@@@std@@QEAA@XZ|
  00368	f940db60	 ldr         x0,[x27,#0x1B0]
  0036c	aa0003f4	 mov         x20,x0
  00370	aa0103f5	 mov         x21,x1
  00374	aa1b03e0	 mov         x0,x27
  00378	90000008	 adrp        x8,|??$_Istream_extract_into_buffer@DU?$char_traits@D@std@@@std@@YAAEAV?$basic_istream@DU?$char_traits@D@std@@@0@AEAV10@_KPEAD@Z$rtcFrameData|
  0037c	91000101	 add         x1,x8,|??$_Istream_extract_into_buffer@DU?$char_traits@D@std@@@std@@YAAEAV?$basic_istream@DU?$char_traits@D@std@@@0@AEAV10@_KPEAD@Z$rtcFrameData|
  00380	94000000	 bl          _RTC_CheckStackVars
  00384	aa1403e0	 mov         x0,x20
  00388	aa1503e1	 mov         x1,x21
  0038c	910783ff	 add         sp,sp,#0x1E0
  00390	94000000	 bl          __security_pop_cookie
  00394	f94017fb	 ldr         x27,[sp,#0x28]
  00398	f94013f6	 ldr         x22,[sp,#0x20]
  0039c	a94157f4	 ldp         x20,x21,[sp,#0x10]
  003a0	a8c37bfd	 ldp         fp,lr,[sp],#0x30
  003a4	d65f03c0	 ret

			 ENDP  ; |??$_Istream_extract_into_buffer@DU?$char_traits@D@std@@@std@@YAAEAV?$basic_istream@DU?$char_traits@D@std@@@0@AEAV10@_KPEAD@Z|, std::_Istream_extract_into_buffer<char,std::char_traits<char> >

; Function compile flags: /Odtp /RTCsu /ZI

	AREA	|.text$x|, DATA

  00000		 |?dtor$0@?0???$_Istream_extract_into_buffer@DU?$char_traits@D@std@@@std@@YAAEAV?$basic_istream@DU?$char_traits@D@std@@@0@AEAV10@_KPEAD@Z@4HA| PROC ; `std::_Istream_extract_into_buffer<char,std::char_traits<char> >'::`1'::dtor$0
  00000	a9bd7bfd	 stp         fp,lr,[sp,#-0x30]!
  00004	a90157f4	 stp         x20,x21,[sp,#0x10]
  00008	f90013f6	 str         x22,[sp,#0x20]
  0000c	f90017fb	 str         x27,[sp,#0x28]
  00010	91016360	 add         x0,x27,#0x58
  00014	94000000	 bl          |??1sentry@?$basic_istream@DU?$char_traits@D@std@@@std@@QEAA@XZ|
  00018	f94017fb	 ldr         x27,[sp,#0x28]
  0001c	f94013f6	 ldr         x22,[sp,#0x20]
  00020	a94157f4	 ldp         x20,x21,[sp,#0x10]
  00024	a8c37bfd	 ldp         fp,lr,[sp],#0x30
  00028	d65f03c0	 ret

			 ENDP  ; |??$_Istream_extract_into_buffer@DU?$char_traits@D@std@@@std@@YAAEAV?$basic_istream@DU?$char_traits@D@std@@@0@AEAV10@_KPEAD@Z|, std::_Istream_extract_into_buffer<char,std::char_traits<char> >

; Function compile flags: /Odtp /RTCsu /ZI

	AREA	|.text$x|, DATA

  00000		 |?dtor$1@?0???$_Istream_extract_into_buffer@DU?$char_traits@D@std@@@std@@YAAEAV?$basic_istream@DU?$char_traits@D@std@@@0@AEAV10@_KPEAD@Z@4HA| PROC ; `std::_Istream_extract_into_buffer<char,std::char_traits<char> >'::`1'::dtor$1
  00000	a9bd7bfd	 stp         fp,lr,[sp,#-0x30]!
  00004	a90157f4	 stp         x20,x21,[sp,#0x10]
  00008	f90013f6	 str         x22,[sp,#0x20]
  0000c	f90017fb	 str         x27,[sp,#0x28]
  00010	91062360	 add         x0,x27,#0x188
  00014	94000000	 bl          |??1locale@std@@QEAA@XZ|
  00018	f94017fb	 ldr         x27,[sp,#0x28]
  0001c	f94013f6	 ldr         x22,[sp,#0x20]
  00020	a94157f4	 ldp         x20,x21,[sp,#0x10]
  00024	a8c37bfd	 ldp         fp,lr,[sp],#0x30
  00028	d65f03c0	 ret

			 ENDP  ; |??$_Istream_extract_into_buffer@DU?$char_traits@D@std@@@std@@YAAEAV?$basic_istream@DU?$char_traits@D@std@@@0@AEAV10@_KPEAD@Z|, std::_Istream_extract_into_buffer<char,std::char_traits<char> >

; Function compile flags: /Odtp /RTCsu /ZI

	AREA	|.text$x|, DATA

  00000		 |?catch$2@?0???$_Istream_extract_into_buffer@DU?$char_traits@D@std@@@std@@YAAEAV?$basic_istream@DU?$char_traits@D@std@@@0@AEAV10@_KPEAD@Z@4HA| PROC ; `std::_Istream_extract_into_buffer<char,std::char_traits<char> >'::`1'::catch$2

; 808  :         _CATCH_IO_(ios_base, _Istr)

  00000	a9bd7bfd	 stp         fp,lr,[sp,#-0x30]!
  00004	a90157f4	 stp         x20,x21,[sp,#0x10]
  00008	f90013f6	 str         x22,[sp,#0x20]
  0000c	f90017fb	 str         x27,[sp,#0x28]
  00010		 |__catch$??$_Istream_extract_into_buffer@DU?$char_traits@D@std@@@std@@YAAEAV?$basic_istream@DU?$char_traits@D@std@@@0@AEAV10@_KPEAD@Z$0|
  00010	f9400768	 ldr         x8,[x27,#8]
  00014	f9400108	 ldr         x8,[x8]
  00018	91001108	 add         x8,x8,#4
  0001c	b9400108	 ldr         w8,[x8]
  00020	93407d09	 sxtw        x9,w8
  00024	f9400768	 ldr         x8,[x27,#8]
  00028	8b090100	 add         x0,x8,x9
  0002c	52800022	 mov         w2,#1
  00030	52800081	 mov         w1,#4
  00034	90000008	 adrp        x8,|__imp_?setstate@?$basic_ios@DU?$char_traits@D@std@@@std@@QEAAXH_N@Z|
  00038	f9400108	 ldr         x8,[x8,|__imp_?setstate@?$basic_ios@DU?$char_traits@D@std@@@std@@QEAAXH_N@Z|]
  0003c	d63f0100	 blr         x8
  00040	d503201f	 nop
  00044	90000000	 adrp        x0,|$LN20@catch$2|
  00048	91000000	 add         x0,x0,|$LN20@catch$2|
  0004c	f94017fb	 ldr         x27,[sp,#0x28]
  00050	f94013f6	 ldr         x22,[sp,#0x20]
  00054	a94157f4	 ldp         x20,x21,[sp,#0x10]
  00058	a8c37bfd	 ldp         fp,lr,[sp],#0x30
  0005c	d65f03c0	 ret
  00060	d4000061	 svc         #3

			 ENDP  ; |??$_Istream_extract_into_buffer@DU?$char_traits@D@std@@@std@@YAAEAV?$basic_istream@DU?$char_traits@D@std@@@0@AEAV10@_KPEAD@Z|, std::_Istream_extract_into_buffer<char,std::char_traits<char> >

; Function compile flags: /Odtp /RTCsu /ZI
; File C:\Program Files\Microsoft Visual Studio\2022\Community\VC\Tools\MSVC\14.34.31933\include\ostream

	AREA	|.text$mn|, CODE, ARM64

  00000		 |??Bsentry@?$basic_ostream@DU?$char_traits@D@std@@@std@@QEBA_NXZ| PROC ; std::basic_ostream<char,std::char_traits<char> >::sentry::operator bool

; 123  :         explicit __CLR_OR_THIS_CALL operator bool() const {

  00000		 |$LN3|
  00000	a9bd7bfd	 stp         fp,lr,[sp,#-0x30]!
  00004	a90157f4	 stp         x20,x21,[sp,#0x10]
  00008	f90013f6	 str         x22,[sp,#0x20]
  0000c	f90017fb	 str         x27,[sp,#0x28]
  00010	910003fd	 mov         fp,sp
  00014	d10383ff	 sub         sp,sp,#0xE0
  00018	910003fb	 mov         x27,sp
  0001c	b202e7f4	 movi        x20,#-0x3333333333333334
  00020	b202e7f5	 movi        x21,#-0x3333333333333334
  00024	a90057f4	 stp         x20,x21,[sp]
  00028	a90157f4	 stp         x20,x21,[sp,#0x10]
  0002c	f9000760	 str         x0,[x27,#8]
  00030	90000008	 adrp        x8,__7B331E11_ostream
  00034	91000100	 add         x0,x8,__7B331E11_ostream
  00038	94000000	 bl          __CheckForDebuggerJustMyCode

; 124  :             return _Ok;

  0003c	f9400768	 ldr         x8,[x27,#8]
  00040	91002108	 add         x8,x8,#8
  00044	39400100	 ldrb        w0,[x8]
  00048	910003bf	 mov         sp,fp
  0004c	f94017fb	 ldr         x27,[sp,#0x28]
  00050	f94013f6	 ldr         x22,[sp,#0x20]
  00054	a94157f4	 ldp         x20,x21,[sp,#0x10]
  00058	a8c37bfd	 ldp         fp,lr,[sp],#0x30
  0005c	d65f03c0	 ret

			 ENDP  ; |??Bsentry@?$basic_ostream@DU?$char_traits@D@std@@@std@@QEBA_NXZ|, std::basic_ostream<char,std::char_traits<char> >::sentry::operator bool

; Function compile flags: /Odtp /RTCsu /ZI
; File C:\Program Files\Microsoft Visual Studio\2022\Community\VC\Tools\MSVC\14.34.31933\include\ostream

	AREA	|.text$mn|, CODE, ARM64

  00000		 |??1sentry@?$basic_ostream@DU?$char_traits@D@std@@@std@@QEAA@XZ| PROC ; std::basic_ostream<char,std::char_traits<char> >::sentry::~sentry

; 108  :         __CLR_OR_THIS_CALL ~sentry() noexcept {

  00000		 |$LN6|
  00000	a9bd7bfd	 stp         fp,lr,[sp,#-0x30]!
  00004	a90157f4	 stp         x20,x21,[sp,#0x10]
  00008	f90013f6	 str         x22,[sp,#0x20]
  0000c	f90017fb	 str         x27,[sp,#0x28]
  00010	910003fd	 mov         fp,sp
  00014	d10403ff	 sub         sp,sp,#0x100
  00018	910003fb	 mov         x27,sp
  0001c	b202e7f4	 movi        x20,#-0x3333333333333334
  00020	b202e7f5	 movi        x21,#-0x3333333333333334
  00024	a90057f4	 stp         x20,x21,[sp]
  00028	a90157f4	 stp         x20,x21,[sp,#0x10]
  0002c	a90257f4	 stp         x20,x21,[sp,#0x20]
  00030	a90357f4	 stp         x20,x21,[sp,#0x30]
  00034	92800030	 mov         xip0,#-2
  00038	f9007770	 str         xip0,[x27,#0xE8]
  0003c	f9000760	 str         x0,[x27,#8]
  00040	90000008	 adrp        x8,__7B331E11_ostream
  00044	91000100	 add         x0,x8,__7B331E11_ostream
  00048	94000000	 bl          __CheckForDebuggerJustMyCode

; 109  : #if !_HAS_EXCEPTIONS
; 110  :             const bool _Zero_uncaught_exceptions = true;
; 111  : #elif _HAS_DEPRECATED_UNCAUGHT_EXCEPTION
; 112  :             const bool _Zero_uncaught_exceptions = !_STD uncaught_exception(); // TRANSITION, ArchivedOS-12000909

  0004c	94000000	 bl          |?uncaught_exception@std@@YA_NXZ|
  00050	53001c08	 uxtb        w8,w0
  00054	2a0803e8	 mov         w8,w8
  00058	7100011f	 cmp         w8,#0
  0005c	54000001	 bne         |$LN4@sentry|
  00060	52800028	 mov         w8,#1
  00064	3903d368	 strb        w8,[x27,#0xF4]
  00068	14000003	 b           |$LN5@sentry|
  0006c		 |$LN4@sentry|
  0006c	52800008	 mov         w8,#0
  00070	3903d368	 strb        w8,[x27,#0xF4]
  00074		 |$LN5@sentry|
  00074	3943d368	 ldrb        w8,[x27,#0xF4]
  00078	39006368	 strb        w8,[x27,#0x18]

; 113  : #else // ^^^ _HAS_DEPRECATED_UNCAUGHT_EXCEPTION / !_HAS_DEPRECATED_UNCAUGHT_EXCEPTION vvv
; 114  :             const bool _Zero_uncaught_exceptions = _STD uncaught_exceptions() == 0;
; 115  : #endif // !_HAS_DEPRECATED_UNCAUGHT_EXCEPTION
; 116  : 
; 117  :             if (_Zero_uncaught_exceptions) {

  0007c	39406368	 ldrb        w8,[x27,#0x18]
  00080	2a0803e8	 mov         w8,w8
  00084	7100011f	 cmp         w8,#0
  00088	54000000	 beq         |$LN2@sentry|

; 118  :                 this->_Myostr._Osfx();

  0008c	f9400768	 ldr         x8,[x27,#8]
  00090	f9400100	 ldr         x0,[x8]
  00094	90000008	 adrp        x8,|__imp_?_Osfx@?$basic_ostream@DU?$char_traits@D@std@@@std@@QEAAXXZ|
  00098	f9400108	 ldr         x8,[x8,|__imp_?_Osfx@?$basic_ostream@DU?$char_traits@D@std@@@std@@QEAAXXZ|]
  0009c	d63f0100	 blr         x8
  000a0		 |$LN2@sentry|

; 119  :             }
; 120  :         }

  000a0	f9400760	 ldr         x0,[x27,#8]
  000a4	94000000	 bl          |??1_Sentry_base@?$basic_ostream@DU?$char_traits@D@std@@@std@@QEAA@XZ|
  000a8	910003bf	 mov         sp,fp
  000ac	f94017fb	 ldr         x27,[sp,#0x28]
  000b0	f94013f6	 ldr         x22,[sp,#0x20]
  000b4	a94157f4	 ldp         x20,x21,[sp,#0x10]
  000b8	a8c37bfd	 ldp         fp,lr,[sp],#0x30
  000bc	d65f03c0	 ret

			 ENDP  ; |??1sentry@?$basic_ostream@DU?$char_traits@D@std@@@std@@QEAA@XZ|, std::basic_ostream<char,std::char_traits<char> >::sentry::~sentry

; Function compile flags: /Odtp /RTCsu /ZI
; File C:\Program Files\Microsoft Visual Studio\2022\Community\VC\Tools\MSVC\14.34.31933\include\ostream

	AREA	|.text$mn|, CODE, ARM64

  00000		 |??0sentry@?$basic_ostream@DU?$char_traits@D@std@@@std@@QEAA@AEAV12@@Z| PROC ; std::basic_ostream<char,std::char_traits<char> >::sentry::sentry

; 91   :         explicit __CLR_OR_THIS_CALL sentry(basic_ostream& _Ostr) : _Sentry_base(_Ostr) {

  00000		 |$LN7|
  00000	a9bd7bfd	 stp         fp,lr,[sp,#-0x30]!
  00004	a90157f4	 stp         x20,x21,[sp,#0x10]
  00008	f90013f6	 str         x22,[sp,#0x20]
  0000c	f90017fb	 str         x27,[sp,#0x28]
  00010	910003fd	 mov         fp,sp
  00014	d10443ff	 sub         sp,sp,#0x110
  00018	910003fb	 mov         x27,sp
  0001c	aa0003f4	 mov         x20,x0
  00020	aa0103f5	 mov         x21,x1
  00024	aa0203f6	 mov         x22,x2
  00028	910003e0	 mov         x0,sp
  0002c	b202e7e1	 movi        x1,#-0x3333333333333334
  00030	d2800a02	 mov         x2,#0x50
  00034	94000000	 bl          __RTC_memset
  00038	aa1403e0	 mov         x0,x20
  0003c	aa1503e1	 mov         x1,x21
  00040	aa1603e2	 mov         x2,x22
  00044	92800030	 mov         xip0,#-2
  00048	f9007f70	 str         xip0,[x27,#0xF8]
  0004c	f9000f60	 str         x0,[x27,#0x18]
  00050	f9000761	 str         x1,[x27,#8]
  00054	90000008	 adrp        x8,__7B331E11_ostream
  00058	91000100	 add         x0,x8,__7B331E11_ostream
  0005c	94000000	 bl          __CheckForDebuggerJustMyCode
  00060	f9400761	 ldr         x1,[x27,#8]
  00064	f9400f60	 ldr         x0,[x27,#0x18]
  00068	94000000	 bl          |??0_Sentry_base@?$basic_ostream@DU?$char_traits@D@std@@@std@@QEAA@AEAV12@@Z|
  0006c	d503201f	 nop

; 92   :             if (!_Ostr.good()) {

  00070	f9400768	 ldr         x8,[x27,#8]
  00074	f9400108	 ldr         x8,[x8]
  00078	91001108	 add         x8,x8,#4
  0007c	b9400108	 ldr         w8,[x8]
  00080	93407d09	 sxtw        x9,w8
  00084	f9400768	 ldr         x8,[x27,#8]
  00088	8b090100	 add         x0,x8,x9
  0008c	90000008	 adrp        x8,|__imp_?good@ios_base@std@@QEBA_NXZ|
  00090	f9400108	 ldr         x8,[x8,|__imp_?good@ios_base@std@@QEBA_NXZ|]
  00094	d63f0100	 blr         x8
  00098	53001c08	 uxtb        w8,w0
  0009c	2a0803e8	 mov         w8,w8
  000a0	7100011f	 cmp         w8,#0
  000a4	54000001	 bne         |$LN2@sentry|

; 93   :                 _Ok = false;

  000a8	f9400f68	 ldr         x8,[x27,#0x18]
  000ac	91002109	 add         x9,x8,#8
  000b0	52800008	 mov         w8,#0
  000b4	39000128	 strb        w8,[x9]

; 94   :                 return;

  000b8	1400002a	 b           |$LN1@sentry|
  000bc		 |$LN2@sentry|

; 95   :             }
; 96   : 
; 97   :             const auto _Tied = _Ostr.tie();

  000bc	f9400768	 ldr         x8,[x27,#8]
  000c0	f9400108	 ldr         x8,[x8]
  000c4	91001108	 add         x8,x8,#4
  000c8	b9400108	 ldr         w8,[x8]
  000cc	93407d09	 sxtw        x9,w8
  000d0	f9400768	 ldr         x8,[x27,#8]
  000d4	8b090100	 add         x0,x8,x9
  000d8	90000008	 adrp        x8,|__imp_?tie@?$basic_ios@DU?$char_traits@D@std@@@std@@QEBAPEAV?$basic_ostream@DU?$char_traits@D@std@@@2@XZ|
  000dc	f9400108	 ldr         x8,[x8,|__imp_?tie@?$basic_ios@DU?$char_traits@D@std@@@std@@QEBAPEAV?$basic_ostream@DU?$char_traits@D@std@@@2@XZ|]
  000e0	d63f0100	 blr         x8
  000e4	f9001760	 str         x0,[x27,#0x28]

; 98   :             if (!_Tied || _Tied == &_Ostr) {

  000e8	f9401768	 ldr         x8,[x27,#0x28]
  000ec	f100011f	 cmp         x8,#0
  000f0	54000000	 beq         |$LN4@sentry|
  000f4	f9400769	 ldr         x9,[x27,#8]
  000f8	f9401768	 ldr         x8,[x27,#0x28]
  000fc	eb09011f	 cmp         x8,x9
  00100	54000001	 bne         |$LN3@sentry|
  00104		 |$LN4@sentry|

; 99   :                 _Ok = true;

  00104	f9400f68	 ldr         x8,[x27,#0x18]
  00108	91002109	 add         x9,x8,#8
  0010c	52800028	 mov         w8,#1
  00110	39000128	 strb        w8,[x9]

; 100  :                 return;

  00114	14000013	 b           |$LN1@sentry|
  00118		 |$LN3@sentry|

; 101  :             }
; 102  : 
; 103  :             _Tied->flush();

  00118	f9401760	 ldr         x0,[x27,#0x28]
  0011c	90000008	 adrp        x8,|__imp_?flush@?$basic_ostream@DU?$char_traits@D@std@@@std@@QEAAAEAV12@XZ|
  00120	f9400108	 ldr         x8,[x8,|__imp_?flush@?$basic_ostream@DU?$char_traits@D@std@@@std@@QEAAAEAV12@XZ|]
  00124	d63f0100	 blr         x8

; 104  :             _Ok = _Ostr.good(); // store test only after flushing tie

  00128	f9400768	 ldr         x8,[x27,#8]
  0012c	f9400108	 ldr         x8,[x8]
  00130	91001108	 add         x8,x8,#4
  00134	b9400108	 ldr         w8,[x8]
  00138	93407d09	 sxtw        x9,w8
  0013c	f9400768	 ldr         x8,[x27,#8]
  00140	8b090100	 add         x0,x8,x9
  00144	90000008	 adrp        x8,|__imp_?good@ios_base@std@@QEBA_NXZ|
  00148	f9400108	 ldr         x8,[x8,|__imp_?good@ios_base@std@@QEBA_NXZ|]
  0014c	d63f0100	 blr         x8
  00150	53001c09	 uxtb        w9,w0
  00154	f9400f68	 ldr         x8,[x27,#0x18]
  00158	91002108	 add         x8,x8,#8
  0015c	39000109	 strb        w9,[x8]
  00160		 |$LN1@sentry|

; 105  :         }

  00160	f9400f60	 ldr         x0,[x27,#0x18]
  00164	910003bf	 mov         sp,fp
  00168	f94017fb	 ldr         x27,[sp,#0x28]
  0016c	f94013f6	 ldr         x22,[sp,#0x20]
  00170	a94157f4	 ldp         x20,x21,[sp,#0x10]
  00174	a8c37bfd	 ldp         fp,lr,[sp],#0x30
  00178	d65f03c0	 ret

			 ENDP  ; |??0sentry@?$basic_ostream@DU?$char_traits@D@std@@@std@@QEAA@AEAV12@@Z|, std::basic_ostream<char,std::char_traits<char> >::sentry::sentry

; Function compile flags: /Odtp /RTCsu /ZI

	AREA	|.text$x|, DATA

  00000		 |?dtor$0@?0???0sentry@?$basic_ostream@DU?$char_traits@D@std@@@std@@QEAA@AEAV12@@Z@4HA| PROC ; `std::basic_ostream<char,std::char_traits<char> >::sentry::sentry'::`1'::dtor$0
  00000	a9bd7bfd	 stp         fp,lr,[sp,#-0x30]!
  00004	a90157f4	 stp         x20,x21,[sp,#0x10]
  00008	f90013f6	 str         x22,[sp,#0x20]
  0000c	f90017fb	 str         x27,[sp,#0x28]
  00010	f9400f60	 ldr         x0,[x27,#0x18]
  00014	94000000	 bl          |??1_Sentry_base@?$basic_ostream@DU?$char_traits@D@std@@@std@@QEAA@XZ|
  00018	f94017fb	 ldr         x27,[sp,#0x28]
  0001c	f94013f6	 ldr         x22,[sp,#0x20]
  00020	a94157f4	 ldp         x20,x21,[sp,#0x10]
  00024	a8c37bfd	 ldp         fp,lr,[sp],#0x30
  00028	d65f03c0	 ret

			 ENDP  ; |??0sentry@?$basic_ostream@DU?$char_traits@D@std@@@std@@QEAA@AEAV12@@Z|, std::basic_ostream<char,std::char_traits<char> >::sentry::sentry

; Function compile flags: /Odtp /RTCsu /ZI
; File C:\Program Files\Microsoft Visual Studio\2022\Community\VC\Tools\MSVC\14.34.31933\include\ostream

	AREA	|.text$mn|, CODE, ARM64

  00000		 |??1_Sentry_base@?$basic_ostream@DU?$char_traits@D@std@@@std@@QEAA@XZ| PROC ; std::basic_ostream<char,std::char_traits<char> >::_Sentry_base::~_Sentry_base

; 77   :         __CLR_OR_THIS_CALL ~_Sentry_base() noexcept { // destroy after unlocking

  00000		 |$LN4|
  00000	a9bd7bfd	 stp         fp,lr,[sp,#-0x30]!
  00004	a90157f4	 stp         x20,x21,[sp,#0x10]
  00008	f90013f6	 str         x22,[sp,#0x20]
  0000c	f90017fb	 str         x27,[sp,#0x28]
  00010	910003fd	 mov         fp,sp
  00014	d10403ff	 sub         sp,sp,#0x100
  00018	910003fb	 mov         x27,sp
  0001c	b202e7f4	 movi        x20,#-0x3333333333333334
  00020	b202e7f5	 movi        x21,#-0x3333333333333334
  00024	a90057f4	 stp         x20,x21,[sp]
  00028	a90157f4	 stp         x20,x21,[sp,#0x10]
  0002c	a90257f4	 stp         x20,x21,[sp,#0x20]
  00030	a90357f4	 stp         x20,x21,[sp,#0x30]
  00034	92800030	 mov         xip0,#-2
  00038	f9007770	 str         xip0,[x27,#0xE8]
  0003c	f9000760	 str         x0,[x27,#8]
  00040	90000008	 adrp        x8,__7B331E11_ostream
  00044	91000100	 add         x0,x8,__7B331E11_ostream
  00048	94000000	 bl          __CheckForDebuggerJustMyCode

; 78   :             const auto _Rdbuf = _Myostr.rdbuf();

  0004c	f9400768	 ldr         x8,[x27,#8]
  00050	f9400108	 ldr         x8,[x8]
  00054	f9007f68	 str         x8,[x27,#0xF8]
  00058	f9407f68	 ldr         x8,[x27,#0xF8]
  0005c	f9400108	 ldr         x8,[x8]
  00060	91001108	 add         x8,x8,#4
  00064	b9400108	 ldr         w8,[x8]
  00068	93407d09	 sxtw        x9,w8
  0006c	f9407f68	 ldr         x8,[x27,#0xF8]
  00070	8b090100	 add         x0,x8,x9
  00074	90000008	 adrp        x8,|__imp_?rdbuf@?$basic_ios@DU?$char_traits@D@std@@@std@@QEBAPEAV?$basic_streambuf@DU?$char_traits@D@std@@@2@XZ|
  00078	f9400108	 ldr         x8,[x8,|__imp_?rdbuf@?$basic_ios@DU?$char_traits@D@std@@@std@@QEBAPEAV?$basic_streambuf@DU?$char_traits@D@std@@@2@XZ|]
  0007c	d63f0100	 blr         x8
  00080	f9000f60	 str         x0,[x27,#0x18]

; 79   :             if (_Rdbuf) {

  00084	f9400f68	 ldr         x8,[x27,#0x18]
  00088	f100011f	 cmp         x8,#0
  0008c	54000000	 beq         |$LN2@Sentry_bas|

; 80   :                 _Rdbuf->_Unlock();

  00090	f9400f68	 ldr         x8,[x27,#0x18]
  00094	f9400108	 ldr         x8,[x8]
  00098	91004108	 add         x8,x8,#0x10
  0009c	f9400f60	 ldr         x0,[x27,#0x18]
  000a0	f9400108	 ldr         x8,[x8]
  000a4	d63f0100	 blr         x8
  000a8		 |$LN2@Sentry_bas|
  000a8	910003bf	 mov         sp,fp
  000ac	f94017fb	 ldr         x27,[sp,#0x28]
  000b0	f94013f6	 ldr         x22,[sp,#0x20]
  000b4	a94157f4	 ldp         x20,x21,[sp,#0x10]
  000b8	a8c37bfd	 ldp         fp,lr,[sp],#0x30
  000bc	d65f03c0	 ret

			 ENDP  ; |??1_Sentry_base@?$basic_ostream@DU?$char_traits@D@std@@@std@@QEAA@XZ|, std::basic_ostream<char,std::char_traits<char> >::_Sentry_base::~_Sentry_base

; Function compile flags: /Odtp /RTCsu /ZI
; File C:\Program Files\Microsoft Visual Studio\2022\Community\VC\Tools\MSVC\14.34.31933\include\ostream

	AREA	|.text$mn|, CODE, ARM64

  00000		 |??0_Sentry_base@?$basic_ostream@DU?$char_traits@D@std@@@std@@QEAA@AEAV12@@Z| PROC ; std::basic_ostream<char,std::char_traits<char> >::_Sentry_base::_Sentry_base

; 70   :         __CLR_OR_THIS_CALL _Sentry_base(basic_ostream& _Ostr) : _Myostr(_Ostr) { // lock the stream buffer, if there

  00000		 |$LN4|
  00000	a9bd7bfd	 stp         fp,lr,[sp,#-0x30]!
  00004	a90157f4	 stp         x20,x21,[sp,#0x10]
  00008	f90013f6	 str         x22,[sp,#0x20]
  0000c	f90017fb	 str         x27,[sp,#0x28]
  00010	910003fd	 mov         fp,sp
  00014	d10403ff	 sub         sp,sp,#0x100
  00018	910003fb	 mov         x27,sp
  0001c	b202e7f4	 movi        x20,#-0x3333333333333334
  00020	b202e7f5	 movi        x21,#-0x3333333333333334
  00024	a90057f4	 stp         x20,x21,[sp]
  00028	a90157f4	 stp         x20,x21,[sp,#0x10]
  0002c	a90257f4	 stp         x20,x21,[sp,#0x20]
  00030	a90357f4	 stp         x20,x21,[sp,#0x30]
  00034	f9000f60	 str         x0,[x27,#0x18]
  00038	f9000761	 str         x1,[x27,#8]
  0003c	90000008	 adrp        x8,__7B331E11_ostream
  00040	91000100	 add         x0,x8,__7B331E11_ostream
  00044	94000000	 bl          __CheckForDebuggerJustMyCode
  00048	f9400f69	 ldr         x9,[x27,#0x18]
  0004c	f9400768	 ldr         x8,[x27,#8]
  00050	f9000128	 str         x8,[x9]

; 71   :             const auto _Rdbuf = _Myostr.rdbuf();

  00054	f9400f68	 ldr         x8,[x27,#0x18]
  00058	f9400108	 ldr         x8,[x8]
  0005c	f9007f68	 str         x8,[x27,#0xF8]
  00060	f9407f68	 ldr         x8,[x27,#0xF8]
  00064	f9400108	 ldr         x8,[x8]
  00068	91001108	 add         x8,x8,#4
  0006c	b9400108	 ldr         w8,[x8]
  00070	93407d09	 sxtw        x9,w8
  00074	f9407f68	 ldr         x8,[x27,#0xF8]
  00078	8b090100	 add         x0,x8,x9
  0007c	90000008	 adrp        x8,|__imp_?rdbuf@?$basic_ios@DU?$char_traits@D@std@@@std@@QEBAPEAV?$basic_streambuf@DU?$char_traits@D@std@@@2@XZ|
  00080	f9400108	 ldr         x8,[x8,|__imp_?rdbuf@?$basic_ios@DU?$char_traits@D@std@@@std@@QEBAPEAV?$basic_streambuf@DU?$char_traits@D@std@@@2@XZ|]
  00084	d63f0100	 blr         x8
  00088	f9001760	 str         x0,[x27,#0x28]

; 72   :             if (_Rdbuf) {

  0008c	f9401768	 ldr         x8,[x27,#0x28]
  00090	f100011f	 cmp         x8,#0
  00094	54000000	 beq         |$LN2@Sentry_bas|

; 73   :                 _Rdbuf->_Lock();

  00098	f9401768	 ldr         x8,[x27,#0x28]
  0009c	f9400108	 ldr         x8,[x8]
  000a0	91002108	 add         x8,x8,#8
  000a4	f9401760	 ldr         x0,[x27,#0x28]
  000a8	f9400108	 ldr         x8,[x8]
  000ac	d63f0100	 blr         x8
  000b0		 |$LN2@Sentry_bas|

; 74   :             }
; 75   :         }

  000b0	f9400f60	 ldr         x0,[x27,#0x18]
  000b4	910003bf	 mov         sp,fp
  000b8	f94017fb	 ldr         x27,[sp,#0x28]
  000bc	f94013f6	 ldr         x22,[sp,#0x20]
  000c0	a94157f4	 ldp         x20,x21,[sp,#0x10]
  000c4	a8c37bfd	 ldp         fp,lr,[sp],#0x30
  000c8	d65f03c0	 ret

			 ENDP  ; |??0_Sentry_base@?$basic_ostream@DU?$char_traits@D@std@@@std@@QEAA@AEAV12@@Z|, std::basic_ostream<char,std::char_traits<char> >::_Sentry_base::_Sentry_base

; Function compile flags: /Odtp /RTCsu /ZI
; File C:\Program Files\Microsoft Visual Studio\2022\Community\VC\Tools\MSVC\14.34.31933\include\ostream

	AREA	|.text$mn|, CODE, ARM64

  00000		 |??$endl@DU?$char_traits@D@std@@@std@@YAAEAV?$basic_ostream@DU?$char_traits@D@std@@@0@AEAV10@@Z| PROC ; std::endl<char,std::char_traits<char> >

; 1005 :     basic_ostream<_Elem, _Traits>& _Ostr) { // insert newline and flush stream

  00000		 |$LN3|
  00000	a9bd7bfd	 stp         fp,lr,[sp,#-0x30]!
  00004	a90157f4	 stp         x20,x21,[sp,#0x10]
  00008	f90013f6	 str         x22,[sp,#0x20]
  0000c	f90017fb	 str         x27,[sp,#0x28]
  00010	910003fd	 mov         fp,sp
  00014	d10383ff	 sub         sp,sp,#0xE0
  00018	910003fb	 mov         x27,sp
  0001c	b202e7f4	 movi        x20,#-0x3333333333333334
  00020	b202e7f5	 movi        x21,#-0x3333333333333334
  00024	a90057f4	 stp         x20,x21,[sp]
  00028	a90157f4	 stp         x20,x21,[sp,#0x10]
  0002c	f9000760	 str         x0,[x27,#8]
  00030	90000008	 adrp        x8,__7B331E11_ostream
  00034	91000100	 add         x0,x8,__7B331E11_ostream
  00038	94000000	 bl          __CheckForDebuggerJustMyCode

; 1006 :     _Ostr.put(_Ostr.widen('\n'));

  0003c	f9400768	 ldr         x8,[x27,#8]
  00040	f9400108	 ldr         x8,[x8]
  00044	91001108	 add         x8,x8,#4
  00048	b9400108	 ldr         w8,[x8]
  0004c	93407d09	 sxtw        x9,w8
  00050	f9400768	 ldr         x8,[x27,#8]
  00054	8b090100	 add         x0,x8,x9
  00058	52800141	 mov         w1,#0xA
  0005c	90000008	 adrp        x8,|__imp_?widen@?$basic_ios@DU?$char_traits@D@std@@@std@@QEBADD@Z|
  00060	f9400108	 ldr         x8,[x8,|__imp_?widen@?$basic_ios@DU?$char_traits@D@std@@@std@@QEBADD@Z|]
  00064	d63f0100	 blr         x8
  00068	13001c01	 sxtb        w1,w0
  0006c	2a0103e1	 mov         w1,w1
  00070	f9400760	 ldr         x0,[x27,#8]
  00074	90000008	 adrp        x8,|__imp_?put@?$basic_ostream@DU?$char_traits@D@std@@@std@@QEAAAEAV12@D@Z|
  00078	f9400108	 ldr         x8,[x8,|__imp_?put@?$basic_ostream@DU?$char_traits@D@std@@@std@@QEAAAEAV12@D@Z|]
  0007c	d63f0100	 blr         x8

; 1007 :     _Ostr.flush();

  00080	f9400760	 ldr         x0,[x27,#8]
  00084	90000008	 adrp        x8,|__imp_?flush@?$basic_ostream@DU?$char_traits@D@std@@@std@@QEAAAEAV12@XZ|
  00088	f9400108	 ldr         x8,[x8,|__imp_?flush@?$basic_ostream@DU?$char_traits@D@std@@@std@@QEAAAEAV12@XZ|]
  0008c	d63f0100	 blr         x8

; 1008 :     return _Ostr;

  00090	f9400760	 ldr         x0,[x27,#8]
  00094	910003bf	 mov         sp,fp
  00098	f94017fb	 ldr         x27,[sp,#0x28]
  0009c	f94013f6	 ldr         x22,[sp,#0x20]
  000a0	a94157f4	 ldp         x20,x21,[sp,#0x10]
  000a4	a8c37bfd	 ldp         fp,lr,[sp],#0x30
  000a8	d65f03c0	 ret

			 ENDP  ; |??$endl@DU?$char_traits@D@std@@@std@@YAAEAV?$basic_ostream@DU?$char_traits@D@std@@@0@AEAV10@@Z|, std::endl<char,std::char_traits<char> >

; Function compile flags: /Odtp /RTCsu /ZI
; File C:\Program Files\Microsoft Visual Studio\2022\Community\VC\Tools\MSVC\14.34.31933\include\ostream

	AREA	|.text$mn|, CODE, ARM64

  00000		 |??$?6U?$char_traits@D@std@@@std@@YAAEAV?$basic_ostream@DU?$char_traits@D@std@@@0@AEAV10@PEBD@Z| PROC ; std::operator<<<std::char_traits<char> >

; 761  : basic_ostream<char, _Traits>& operator<<(basic_ostream<char, _Traits>& _Ostr, const char* _Val) {

  00000		 |$LN25|
  00000	a9bd7bfd	 stp         fp,lr,[sp,#-0x30]!
  00004	a90157f4	 stp         x20,x21,[sp,#0x10]
  00008	f90013f6	 str         x22,[sp,#0x20]
  0000c	f90017fb	 str         x27,[sp,#0x28]
  00010	910003fd	 mov         fp,sp
  00014	94000000	 bl          __security_push_cookie
  00018	d10683ff	 sub         sp,sp,#0x1A0
  0001c	910003fb	 mov         x27,sp
  00020	aa0003f4	 mov         x20,x0
  00024	aa0103f5	 mov         x21,x1
  00028	aa0203f6	 mov         x22,x2
  0002c	910003e0	 mov         x0,sp
  00030	b202e7e1	 movi        x1,#-0x3333333333333334
  00034	d2801c02	 mov         x2,#0xE0
  00038	94000000	 bl          __RTC_memset
  0003c	aa1403e0	 mov         x0,x20
  00040	aa1503e1	 mov         x1,x21
  00044	aa1603e2	 mov         x2,x22
  00048	92800030	 mov         xip0,#-2
  0004c	f900c370	 str         xip0,[x27,#0x180]
  00050	f9000760	 str         x0,[x27,#8]
  00054	f9000f61	 str         x1,[x27,#0x18]
  00058	90000008	 adrp        x8,__7B331E11_ostream
  0005c	91000100	 add         x0,x8,__7B331E11_ostream
  00060	94000000	 bl          __CheckForDebuggerJustMyCode

; 762  :     // insert NTBS into char stream
; 763  :     using _Elem = char;
; 764  :     using _Myos = basic_ostream<_Elem, _Traits>;
; 765  : 
; 766  :     ios_base::iostate _State = ios_base::goodbit;

  00064	52800008	 mov         w8,#0
  00068	b9002b68	 str         w8,[x27,#0x28]

; 767  :     streamsize _Count        = static_cast<streamsize>(_Traits::length(_Val));

  0006c	f9400f60	 ldr         x0,[x27,#0x18]
  00070	94000000	 bl          |?length@?$_Narrow_char_traits@DH@std@@SA_KQEBD@Z|
  00074	f9001f60	 str         x0,[x27,#0x38]

; 768  :     streamsize _Pad          = _Ostr.width() <= 0 || _Ostr.width() <= _Count ? 0 : _Ostr.width() - _Count;

  00078	f9400768	 ldr         x8,[x27,#8]
  0007c	f9400108	 ldr         x8,[x8]
  00080	91001108	 add         x8,x8,#4
  00084	b9400108	 ldr         w8,[x8]
  00088	93407d09	 sxtw        x9,w8
  0008c	f9400768	 ldr         x8,[x27,#8]
  00090	8b090100	 add         x0,x8,x9
  00094	90000008	 adrp        x8,|__imp_?width@ios_base@std@@QEBA_JXZ|
  00098	f9400108	 ldr         x8,[x8,|__imp_?width@ios_base@std@@QEBA_JXZ|]
  0009c	d63f0100	 blr         x8
  000a0	f100001f	 cmp         x0,#0
  000a4	5400000d	 ble         |$LN17@operator|
  000a8	f9400768	 ldr         x8,[x27,#8]
  000ac	f9400108	 ldr         x8,[x8]
  000b0	91001108	 add         x8,x8,#4
  000b4	b9400108	 ldr         w8,[x8]
  000b8	93407d09	 sxtw        x9,w8
  000bc	f9400768	 ldr         x8,[x27,#8]
  000c0	8b090100	 add         x0,x8,x9
  000c4	90000008	 adrp        x8,|__imp_?width@ios_base@std@@QEBA_JXZ|
  000c8	f9400108	 ldr         x8,[x8,|__imp_?width@ios_base@std@@QEBA_JXZ|]
  000cc	d63f0100	 blr         x8
  000d0	f9401f68	 ldr         x8,[x27,#0x38]
  000d4	eb08001f	 cmp         x0,x8
  000d8	5400000d	 ble         |$LN17@operator|
  000dc	f9400768	 ldr         x8,[x27,#8]
  000e0	f9400108	 ldr         x8,[x8]
  000e4	91001108	 add         x8,x8,#4
  000e8	b9400108	 ldr         w8,[x8]
  000ec	93407d09	 sxtw        x9,w8
  000f0	f9400768	 ldr         x8,[x27,#8]
  000f4	8b090100	 add         x0,x8,x9
  000f8	90000008	 adrp        x8,|__imp_?width@ios_base@std@@QEBA_JXZ|
  000fc	f9400108	 ldr         x8,[x8,|__imp_?width@ios_base@std@@QEBA_JXZ|]
  00100	d63f0100	 blr         x8
  00104	f9401f68	 ldr         x8,[x27,#0x38]
  00108	cb080008	 sub         x8,x0,x8
  0010c	f900cb68	 str         x8,[x27,#0x190]
  00110	14000003	 b           |$LN18@operator|
  00114		 |$LN17@operator|
  00114	d2800008	 mov         x8,#0
  00118	f900cb68	 str         x8,[x27,#0x190]
  0011c		 |$LN18@operator|
  0011c	f940cb68	 ldr         x8,[x27,#0x190]
  00120	f9002768	 str         x8,[x27,#0x48]

; 769  :     const typename _Myos::sentry _Ok(_Ostr);

  00124	f9400761	 ldr         x1,[x27,#8]
  00128	91016360	 add         x0,x27,#0x58
  0012c	94000000	 bl          |??0sentry@?$basic_ostream@DU?$char_traits@D@std@@@std@@QEAA@AEAV12@@Z|
  00130	d503201f	 nop

; 770  : 
; 771  :     if (!_Ok) {

  00134	91016360	 add         x0,x27,#0x58
  00138	94000000	 bl          |??Bsentry@?$basic_ostream@DU?$char_traits@D@std@@@std@@QEBA_NXZ|
  0013c	53001c08	 uxtb        w8,w0
  00140	2a0803e8	 mov         w8,w8
  00144	7100011f	 cmp         w8,#0
  00148	54000001	 bne         |$LN8@operator|

; 772  :         _State |= ios_base::badbit;

  0014c	b9402b68	 ldr         w8,[x27,#0x28]
  00150	321e0108	 orr         w8,w8,#4
  00154	b9002b68	 str         w8,[x27,#0x28]

; 773  :     } else { // state okay, insert

  00158	140000a8	 b           |$LN9@operator|
  0015c		 |$LN8@operator|

; 774  :         _TRY_IO_BEGIN
; 775  :         if ((_Ostr.flags() & ios_base::adjustfield) != ios_base::left) {

  0015c	f9400768	 ldr         x8,[x27,#8]
  00160	f9400108	 ldr         x8,[x8]
  00164	91001108	 add         x8,x8,#4
  00168	b9400108	 ldr         w8,[x8]
  0016c	93407d09	 sxtw        x9,w8
  00170	f9400768	 ldr         x8,[x27,#8]
  00174	8b090100	 add         x0,x8,x9
  00178	90000008	 adrp        x8,|__imp_?flags@ios_base@std@@QEBAHXZ|
  0017c	f9400108	 ldr         x8,[x8,|__imp_?flags@ios_base@std@@QEBAHXZ|]
  00180	d63f0100	 blr         x8
  00184	b9018f60	 str         w0,[x27,#0x18C]
  00188	b9418f68	 ldr         w8,[x27,#0x18C]
  0018c	121a0908	 and         w8,w8,#0x1C0
  00190	7101011f	 cmp         w8,#0x40
  00194	54000000	 beq         |$LN11@operator|

; 776  :             for (; 0 < _Pad; --_Pad) { // pad on left

  00198	14000004	 b           |$LN4@operator|
  0019c		 |$LN2@operator|
  0019c	f9402768	 ldr         x8,[x27,#0x48]
  001a0	d1000508	 sub         x8,x8,#1
  001a4	f9002768	 str         x8,[x27,#0x48]
  001a8		 |$LN4@operator|
  001a8	f9402769	 ldr         x9,[x27,#0x48]
  001ac	d2800008	 mov         x8,#0
  001b0	eb09011f	 cmp         x8,x9
  001b4	5400000a	 bge         |$LN11@operator|

; 777  :                 if (_Traits::eq_int_type(_Traits::eof(), _Ostr.rdbuf()->sputc(_Ostr.fill()))) {

  001b8	f9400768	 ldr         x8,[x27,#8]
  001bc	f9400108	 ldr         x8,[x8]
  001c0	91001108	 add         x8,x8,#4
  001c4	b9400108	 ldr         w8,[x8]
  001c8	93407d09	 sxtw        x9,w8
  001cc	f9400768	 ldr         x8,[x27,#8]
  001d0	8b090100	 add         x0,x8,x9
  001d4	90000008	 adrp        x8,|__imp_?fill@?$basic_ios@DU?$char_traits@D@std@@@std@@QEBADXZ|
  001d8	f9400108	 ldr         x8,[x8,|__imp_?fill@?$basic_ios@DU?$char_traits@D@std@@@std@@QEBADXZ|]
  001dc	d63f0100	 blr         x8
  001e0	13001c08	 sxtb        w8,w0
  001e4	39063368	 strb        w8,[x27,#0x18C]
  001e8	f9400768	 ldr         x8,[x27,#8]
  001ec	f9400108	 ldr         x8,[x8]
  001f0	91001108	 add         x8,x8,#4
  001f4	b9400108	 ldr         w8,[x8]
  001f8	93407d09	 sxtw        x9,w8
  001fc	f9400768	 ldr         x8,[x27,#8]
  00200	8b090100	 add         x0,x8,x9
  00204	90000008	 adrp        x8,|__imp_?rdbuf@?$basic_ios@DU?$char_traits@D@std@@@std@@QEBAPEAV?$basic_streambuf@DU?$char_traits@D@std@@@2@XZ|
  00208	f9400108	 ldr         x8,[x8,|__imp_?rdbuf@?$basic_ios@DU?$char_traits@D@std@@@std@@QEBAPEAV?$basic_streambuf@DU?$char_traits@D@std@@@2@XZ|]
  0020c	d63f0100	 blr         x8
  00210	f900cb60	 str         x0,[x27,#0x190]
  00214	39c63361	 ldrsb       w1,[x27,#0x18C]
  00218	f940cb60	 ldr         x0,[x27,#0x190]
  0021c	90000008	 adrp        x8,|__imp_?sputc@?$basic_streambuf@DU?$char_traits@D@std@@@std@@QEAAHD@Z|
  00220	f9400108	 ldr         x8,[x8,|__imp_?sputc@?$basic_streambuf@DU?$char_traits@D@std@@@std@@QEAAHD@Z|]
  00224	d63f0100	 blr         x8
  00228	b9019b60	 str         w0,[x27,#0x198]
  0022c	b9419b68	 ldr         w8,[x27,#0x198]
  00230	b9014368	 str         w8,[x27,#0x140]
  00234	94000000	 bl          |?eof@?$_Narrow_char_traits@DH@std@@SAHXZ|
  00238	2a0003e0	 mov         w0,w0
  0023c	b9014f60	 str         w0,[x27,#0x14C]
  00240	91050361	 add         x1,x27,#0x140
  00244	91053360	 add         x0,x27,#0x14C
  00248	94000000	 bl          |?eq_int_type@?$_Narrow_char_traits@DH@std@@SA_NAEBH0@Z|
  0024c	53001c08	 uxtb        w8,w0
  00250	2a0803e8	 mov         w8,w8
  00254	7100011f	 cmp         w8,#0
  00258	54000000	 beq         |$LN12@operator|

; 778  :                     _State |= ios_base::badbit; // insertion failed, quit

  0025c	b9402b68	 ldr         w8,[x27,#0x28]
  00260	321e0108	 orr         w8,w8,#4
  00264	b9002b68	 str         w8,[x27,#0x28]

; 779  :                     break;

  00268	14000002	 b           |$LN11@operator|
  0026c		 |$LN12@operator|

; 780  :                 }
; 781  :             }

  0026c	17ffffcc	 b           |$LN2@operator|
  00270		 |$LN11@operator|

; 782  :         }
; 783  : 
; 784  :         if (_State == ios_base::goodbit && _Ostr.rdbuf()->sputn(_Val, _Count) != _Count) {

  00270	b9402b68	 ldr         w8,[x27,#0x28]
  00274	7100011f	 cmp         w8,#0
  00278	54000001	 bne         |$LN13@operator|
  0027c	f9400768	 ldr         x8,[x27,#8]
  00280	f9400108	 ldr         x8,[x8]
  00284	91001108	 add         x8,x8,#4
  00288	b9400108	 ldr         w8,[x8]
  0028c	93407d09	 sxtw        x9,w8
  00290	f9400768	 ldr         x8,[x27,#8]
  00294	8b090100	 add         x0,x8,x9
  00298	90000008	 adrp        x8,|__imp_?rdbuf@?$basic_ios@DU?$char_traits@D@std@@@std@@QEBAPEAV?$basic_streambuf@DU?$char_traits@D@std@@@2@XZ|
  0029c	f9400108	 ldr         x8,[x8,|__imp_?rdbuf@?$basic_ios@DU?$char_traits@D@std@@@std@@QEBAPEAV?$basic_streambuf@DU?$char_traits@D@std@@@2@XZ|]
  002a0	d63f0100	 blr         x8
  002a4	f900cb60	 str         x0,[x27,#0x190]
  002a8	f9401f62	 ldr         x2,[x27,#0x38]
  002ac	f9400f61	 ldr         x1,[x27,#0x18]
  002b0	f940cb60	 ldr         x0,[x27,#0x190]
  002b4	90000008	 adrp        x8,|__imp_?sputn@?$basic_streambuf@DU?$char_traits@D@std@@@std@@QEAA_JPEBD_J@Z|
  002b8	f9400108	 ldr         x8,[x8,|__imp_?sputn@?$basic_streambuf@DU?$char_traits@D@std@@@std@@QEAA_JPEBD_J@Z|]
  002bc	d63f0100	 blr         x8
  002c0	f900cf60	 str         x0,[x27,#0x198]
  002c4	f9401f69	 ldr         x9,[x27,#0x38]
  002c8	f940cf68	 ldr         x8,[x27,#0x198]
  002cc	eb09011f	 cmp         x8,x9
  002d0	54000000	 beq         |$LN13@operator|

; 785  :             _State |= ios_base::badbit;

  002d4	b9402b68	 ldr         w8,[x27,#0x28]
  002d8	321e0108	 orr         w8,w8,#4
  002dc	b9002b68	 str         w8,[x27,#0x28]
  002e0		 |$LN13@operator|

; 786  :         }
; 787  : 
; 788  :         if (_State == ios_base::goodbit) {

  002e0	b9402b68	 ldr         w8,[x27,#0x28]
  002e4	7100011f	 cmp         w8,#0
  002e8	54000001	 bne         |$LN14@operator|

; 789  :             for (; 0 < _Pad; --_Pad) { // pad on right

  002ec	14000004	 b           |$LN7@operator|
  002f0		 |$LN5@operator|
  002f0	f9402768	 ldr         x8,[x27,#0x48]
  002f4	d1000508	 sub         x8,x8,#1
  002f8	f9002768	 str         x8,[x27,#0x48]
  002fc		 |$LN7@operator|
  002fc	f9402769	 ldr         x9,[x27,#0x48]
  00300	d2800008	 mov         x8,#0
  00304	eb09011f	 cmp         x8,x9
  00308	5400000a	 bge         |$LN14@operator|

; 790  :                 if (_Traits::eq_int_type(_Traits::eof(), _Ostr.rdbuf()->sputc(_Ostr.fill()))) {

  0030c	f9400768	 ldr         x8,[x27,#8]
  00310	f9400108	 ldr         x8,[x8]
  00314	91001108	 add         x8,x8,#4
  00318	b9400108	 ldr         w8,[x8]
  0031c	93407d09	 sxtw        x9,w8
  00320	f9400768	 ldr         x8,[x27,#8]
  00324	8b090100	 add         x0,x8,x9
  00328	90000008	 adrp        x8,|__imp_?fill@?$basic_ios@DU?$char_traits@D@std@@@std@@QEBADXZ|
  0032c	f9400108	 ldr         x8,[x8,|__imp_?fill@?$basic_ios@DU?$char_traits@D@std@@@std@@QEBADXZ|]
  00330	d63f0100	 blr         x8
  00334	13001c08	 sxtb        w8,w0
  00338	39063368	 strb        w8,[x27,#0x18C]
  0033c	f9400768	 ldr         x8,[x27,#8]
  00340	f9400108	 ldr         x8,[x8]
  00344	91001108	 add         x8,x8,#4
  00348	b9400108	 ldr         w8,[x8]
  0034c	93407d09	 sxtw        x9,w8
  00350	f9400768	 ldr         x8,[x27,#8]
  00354	8b090100	 add         x0,x8,x9
  00358	90000008	 adrp        x8,|__imp_?rdbuf@?$basic_ios@DU?$char_traits@D@std@@@std@@QEBAPEAV?$basic_streambuf@DU?$char_traits@D@std@@@2@XZ|
  0035c	f9400108	 ldr         x8,[x8,|__imp_?rdbuf@?$basic_ios@DU?$char_traits@D@std@@@std@@QEBAPEAV?$basic_streambuf@DU?$char_traits@D@std@@@2@XZ|]
  00360	d63f0100	 blr         x8
  00364	f900cb60	 str         x0,[x27,#0x190]
  00368	39c63361	 ldrsb       w1,[x27,#0x18C]
  0036c	f940cb60	 ldr         x0,[x27,#0x190]
  00370	90000008	 adrp        x8,|__imp_?sputc@?$basic_streambuf@DU?$char_traits@D@std@@@std@@QEAAHD@Z|
  00374	f9400108	 ldr         x8,[x8,|__imp_?sputc@?$basic_streambuf@DU?$char_traits@D@std@@@std@@QEAAHD@Z|]
  00378	d63f0100	 blr         x8
  0037c	b9019b60	 str         w0,[x27,#0x198]
  00380	b9419b68	 ldr         w8,[x27,#0x198]
  00384	b9015b68	 str         w8,[x27,#0x158]
  00388	94000000	 bl          |?eof@?$_Narrow_char_traits@DH@std@@SAHXZ|
  0038c	2a0003e0	 mov         w0,w0
  00390	b9016760	 str         w0,[x27,#0x164]
  00394	91056361	 add         x1,x27,#0x158
  00398	91059360	 add         x0,x27,#0x164
  0039c	94000000	 bl          |?eq_int_type@?$_Narrow_char_traits@DH@std@@SA_NAEBH0@Z|
  003a0	53001c08	 uxtb        w8,w0
  003a4	2a0803e8	 mov         w8,w8
  003a8	7100011f	 cmp         w8,#0
  003ac	54000000	 beq         |$LN15@operator|

; 791  :                     _State |= ios_base::badbit; // insertion failed, quit

  003b0	b9402b68	 ldr         w8,[x27,#0x28]
  003b4	321e0108	 orr         w8,w8,#4
  003b8	b9002b68	 str         w8,[x27,#0x28]

; 792  :                     break;

  003bc	14000002	 b           |$LN14@operator|
  003c0		 |$LN15@operator|

; 793  :                 }
; 794  :             }

  003c0	17ffffcc	 b           |$LN5@operator|
  003c4		 |$LN14@operator|

; 795  :         }
; 796  : 
; 797  :         _Ostr.width(0);

  003c4	f9400768	 ldr         x8,[x27,#8]
  003c8	f9400108	 ldr         x8,[x8]
  003cc	91001108	 add         x8,x8,#4
  003d0	b9400108	 ldr         w8,[x8]
  003d4	93407d09	 sxtw        x9,w8
  003d8	f9400768	 ldr         x8,[x27,#8]
  003dc	8b090100	 add         x0,x8,x9
  003e0	d2800001	 mov         x1,#0
  003e4	90000008	 adrp        x8,|__imp_?width@ios_base@std@@QEAA_J_J@Z|
  003e8	f9400108	 ldr         x8,[x8,|__imp_?width@ios_base@std@@QEAA_J_J@Z|]
  003ec	d63f0100	 blr         x8
  003f0	d503201f	 nop
  003f4	14000001	 b           |$LN9@operator|
  003f8		 |$LN23@operator|
  003f8		 |$LN9@operator|

; 798  :         _CATCH_IO_(ios_base, _Ostr)
; 799  :     }
; 800  : 
; 801  :     _Ostr.setstate(_State);

  003f8	f9400768	 ldr         x8,[x27,#8]
  003fc	f9400108	 ldr         x8,[x8]
  00400	91001108	 add         x8,x8,#4
  00404	b9400108	 ldr         w8,[x8]
  00408	93407d09	 sxtw        x9,w8
  0040c	f9400768	 ldr         x8,[x27,#8]
  00410	8b090100	 add         x0,x8,x9
  00414	52800002	 mov         w2,#0
  00418	b9402b61	 ldr         w1,[x27,#0x28]
  0041c	90000008	 adrp        x8,|__imp_?setstate@?$basic_ios@DU?$char_traits@D@std@@@std@@QEAAXH_N@Z|
  00420	f9400108	 ldr         x8,[x8,|__imp_?setstate@?$basic_ios@DU?$char_traits@D@std@@@std@@QEAAXH_N@Z|]
  00424	d63f0100	 blr         x8

; 802  :     return _Ostr;

  00428	f9400768	 ldr         x8,[x27,#8]
  0042c	f900bb68	 str         x8,[x27,#0x170]
  00430	91016360	 add         x0,x27,#0x58
  00434	94000000	 bl          |??1sentry@?$basic_ostream@DU?$char_traits@D@std@@@std@@QEAA@XZ|
  00438	f940bb60	 ldr         x0,[x27,#0x170]
  0043c	aa0003f4	 mov         x20,x0
  00440	aa0103f5	 mov         x21,x1
  00444	aa1b03e0	 mov         x0,x27
  00448	90000008	 adrp        x8,|??$?6U?$char_traits@D@std@@@std@@YAAEAV?$basic_ostream@DU?$char_traits@D@std@@@0@AEAV10@PEBD@Z$rtcFrameData|
  0044c	91000101	 add         x1,x8,|??$?6U?$char_traits@D@std@@@std@@YAAEAV?$basic_ostream@DU?$char_traits@D@std@@@0@AEAV10@PEBD@Z$rtcFrameData|
  00450	94000000	 bl          _RTC_CheckStackVars
  00454	aa1403e0	 mov         x0,x20
  00458	aa1503e1	 mov         x1,x21
  0045c	910683ff	 add         sp,sp,#0x1A0
  00460	94000000	 bl          __security_pop_cookie
  00464	f94017fb	 ldr         x27,[sp,#0x28]
  00468	f94013f6	 ldr         x22,[sp,#0x20]
  0046c	a94157f4	 ldp         x20,x21,[sp,#0x10]
  00470	a8c37bfd	 ldp         fp,lr,[sp],#0x30
  00474	d65f03c0	 ret

			 ENDP  ; |??$?6U?$char_traits@D@std@@@std@@YAAEAV?$basic_ostream@DU?$char_traits@D@std@@@0@AEAV10@PEBD@Z|, std::operator<<<std::char_traits<char> >

; Function compile flags: /Odtp /RTCsu /ZI

	AREA	|.text$x|, DATA

  00000		 |?dtor$0@?0???$?6U?$char_traits@D@std@@@std@@YAAEAV?$basic_ostream@DU?$char_traits@D@std@@@0@AEAV10@PEBD@Z@4HA| PROC ; `std::operator<<<std::char_traits<char> >'::`1'::dtor$0
  00000	a9bd7bfd	 stp         fp,lr,[sp,#-0x30]!
  00004	a90157f4	 stp         x20,x21,[sp,#0x10]
  00008	f90013f6	 str         x22,[sp,#0x20]
  0000c	f90017fb	 str         x27,[sp,#0x28]
  00010	91016360	 add         x0,x27,#0x58
  00014	94000000	 bl          |??1sentry@?$basic_ostream@DU?$char_traits@D@std@@@std@@QEAA@XZ|
  00018	f94017fb	 ldr         x27,[sp,#0x28]
  0001c	f94013f6	 ldr         x22,[sp,#0x20]
  00020	a94157f4	 ldp         x20,x21,[sp,#0x10]
  00024	a8c37bfd	 ldp         fp,lr,[sp],#0x30
  00028	d65f03c0	 ret

			 ENDP  ; |??$?6U?$char_traits@D@std@@@std@@YAAEAV?$basic_ostream@DU?$char_traits@D@std@@@0@AEAV10@PEBD@Z|, std::operator<<<std::char_traits<char> >

; Function compile flags: /Odtp /RTCsu /ZI

	AREA	|.text$x|, DATA

  00000		 |?catch$1@?0???$?6U?$char_traits@D@std@@@std@@YAAEAV?$basic_ostream@DU?$char_traits@D@std@@@0@AEAV10@PEBD@Z@4HA| PROC ; `std::operator<<<std::char_traits<char> >'::`1'::catch$1

; 798  :         _CATCH_IO_(ios_base, _Ostr)

  00000	a9bd7bfd	 stp         fp,lr,[sp,#-0x30]!
  00004	a90157f4	 stp         x20,x21,[sp,#0x10]
  00008	f90013f6	 str         x22,[sp,#0x20]
  0000c	f90017fb	 str         x27,[sp,#0x28]
  00010		 |__catch$??$?6U?$char_traits@D@std@@@std@@YAAEAV?$basic_ostream@DU?$char_traits@D@std@@@0@AEAV10@PEBD@Z$0|
  00010	f9400768	 ldr         x8,[x27,#8]
  00014	f9400108	 ldr         x8,[x8]
  00018	91001108	 add         x8,x8,#4
  0001c	b9400108	 ldr         w8,[x8]
  00020	93407d09	 sxtw        x9,w8
  00024	f9400768	 ldr         x8,[x27,#8]
  00028	8b090100	 add         x0,x8,x9
  0002c	52800022	 mov         w2,#1
  00030	52800081	 mov         w1,#4
  00034	90000008	 adrp        x8,|__imp_?setstate@?$basic_ios@DU?$char_traits@D@std@@@std@@QEAAXH_N@Z|
  00038	f9400108	 ldr         x8,[x8,|__imp_?setstate@?$basic_ios@DU?$char_traits@D@std@@@std@@QEAAXH_N@Z|]
  0003c	d63f0100	 blr         x8
  00040	d503201f	 nop
  00044	90000000	 adrp        x0,|$LN23@catch$1|
  00048	91000000	 add         x0,x0,|$LN23@catch$1|
  0004c	f94017fb	 ldr         x27,[sp,#0x28]
  00050	f94013f6	 ldr         x22,[sp,#0x20]
  00054	a94157f4	 ldp         x20,x21,[sp,#0x10]
  00058	a8c37bfd	 ldp         fp,lr,[sp],#0x30
  0005c	d65f03c0	 ret
  00060	d4000061	 svc         #3

			 ENDP  ; |??$?6U?$char_traits@D@std@@@std@@YAAEAV?$basic_ostream@DU?$char_traits@D@std@@@0@AEAV10@PEBD@Z|, std::operator<<<std::char_traits<char> >

; Function compile flags: /Odtp /RTCsu /ZI
; File C:\Program Files\Microsoft Visual Studio\2022\Community\VC\Tools\MSVC\14.34.31933\include\istream

	AREA	|.text$mn|, CODE, ARM64

  00000		 |??$?5DU?$char_traits@D@std@@@std@@YAAEAV?$basic_istream@DU?$char_traits@D@std@@@0@AEAV10@PEAD@Z| PROC ; std::operator>><char,std::char_traits<char> >

; 843  : basic_istream<_Elem, _Traits>& operator>>(basic_istream<_Elem, _Traits>& _Istr, _Elem* _Str) {

  00000		 |$LN3|
  00000	a9bd7bfd	 stp         fp,lr,[sp,#-0x30]!
  00004	a90157f4	 stp         x20,x21,[sp,#0x10]
  00008	f90013f6	 str         x22,[sp,#0x20]
  0000c	f90017fb	 str         x27,[sp,#0x28]
  00010	910003fd	 mov         fp,sp
  00014	d103c3ff	 sub         sp,sp,#0xF0
  00018	910003fb	 mov         x27,sp
  0001c	b202e7f4	 movi        x20,#-0x3333333333333334
  00020	b202e7f5	 movi        x21,#-0x3333333333333334
  00024	a90057f4	 stp         x20,x21,[sp]
  00028	a90157f4	 stp         x20,x21,[sp,#0x10]
  0002c	a90257f4	 stp         x20,x21,[sp,#0x20]
  00030	f9000760	 str         x0,[x27,#8]
  00034	f9000f61	 str         x1,[x27,#0x18]
  00038	90000008	 adrp        x8,__18E32B2B_istream
  0003c	91000100	 add         x0,x8,__18E32B2B_istream
  00040	94000000	 bl          __CheckForDebuggerJustMyCode

; 844  :     return _Istream_extract_into_buffer(_Istr, SIZE_MAX, _Str);

  00044	f9400f62	 ldr         x2,[x27,#0x18]
  00048	92800001	 mov         x1,#-1
  0004c	f9400760	 ldr         x0,[x27,#8]
  00050	94000000	 bl          |??$_Istream_extract_into_buffer@DU?$char_traits@D@std@@@std@@YAAEAV?$basic_istream@DU?$char_traits@D@std@@@0@AEAV10@_KPEAD@Z|
  00054	910003bf	 mov         sp,fp
  00058	f94017fb	 ldr         x27,[sp,#0x28]
  0005c	f94013f6	 ldr         x22,[sp,#0x20]
  00060	a94157f4	 ldp         x20,x21,[sp,#0x10]
  00064	a8c37bfd	 ldp         fp,lr,[sp],#0x30
  00068	d65f03c0	 ret

			 ENDP  ; |??$?5DU?$char_traits@D@std@@@std@@YAAEAV?$basic_istream@DU?$char_traits@D@std@@@0@AEAV10@PEAD@Z|, std::operator>><char,std::char_traits<char> >

; Function compile flags: /Odtp /RTCsu /ZI
; File C:\KPO\lab01\lab01\lab01.cpp

	AREA	|.text$mn|, CODE, ARM64

  00000		 |main|	 PROC

; 5    : int main(int argc, char* argv[]) {

  00000		 |$LN11|
  00000	a9bd7bfd	 stp         fp,lr,[sp,#-0x30]!
  00004	a90157f4	 stp         x20,x21,[sp,#0x10]
  00008	f90013f6	 str         x22,[sp,#0x20]
  0000c	f90017fb	 str         x27,[sp,#0x28]
  00010	910003fd	 mov         fp,sp
  00014	94000000	 bl          __security_push_cookie
  00018	d105c3ff	 sub         sp,sp,#0x170
  0001c	910003fb	 mov         x27,sp
  00020	aa0003f4	 mov         x20,x0
  00024	aa0103f5	 mov         x21,x1
  00028	aa0203f6	 mov         x22,x2
  0002c	910003e0	 mov         x0,sp
  00030	b202e7e1	 movi        x1,#-0x3333333333333334
  00034	d2801602	 mov         x2,#0xB0
  00038	94000000	 bl          __RTC_memset
  0003c	aa1403e0	 mov         x0,x20
  00040	aa1503e1	 mov         x1,x21
  00044	aa1603e2	 mov         x2,x22
  00048	b9000760	 str         w0,[x27,#4]
  0004c	f9000b61	 str         x1,[x27,#0x10]
  00050	90000008	 adrp        x8,|__5FDCC71F_lab01@cpp|
  00054	91000100	 add         x0,x8,|__5FDCC71F_lab01@cpp|
  00058	94000000	 bl          __CheckForDebuggerJustMyCode

; 6    :     setlocale(LC_ALL, "Russian");

  0005c	90000008	 adrp        x8,|??_C@_07PEAPJBGG@Russian@|
  00060	91000101	 add         x1,x8,|??_C@_07PEAPJBGG@Russian@|
  00064	52800000	 mov         w0,#0
  00068	90000008	 adrp        x8,__imp_setlocale
  0006c	f9400108	 ldr         x8,[x8,__imp_setlocale]
  00070	d63f0100	 blr         x8

; 7    :     int iDay = 0;

  00074	52800008	 mov         w8,#0
  00078	b9002368	 str         w8,[x27,#0x20]

; 8    :     int iMonth = 0;

  0007c	52800008	 mov         w8,#0
  00080	b9002f68	 str         w8,[x27,#0x2C]

; 9    :     int iYear = 0;

  00084	52800008	 mov         w8,#0
  00088	b9003b68	 str         w8,[x27,#0x38]

; 10   :     char input[9];
; 11   : 
; 12   :     cin >> input;

  0008c	91012361	 add         x1,x27,#0x48
  00090	90000008	 adrp        x8,|__imp_?cin@std@@3V?$basic_istream@DU?$char_traits@D@std@@@1@A|
  00094	f9400100	 ldr         x0,[x8,|__imp_?cin@std@@3V?$basic_istream@DU?$char_traits@D@std@@@1@A|]
  00098	94000000	 bl          |??$?5DU?$char_traits@D@std@@@std@@YAAEAV?$basic_istream@DU?$char_traits@D@std@@@0@AEAV10@PEAD@Z|

; 13   : 
; 14   :     sscanf_s(input, "%2d%2d%4d", &iDay, &iMonth, &iYear);

  0009c	9100e364	 add         x4,x27,#0x38
  000a0	9100b363	 add         x3,x27,#0x2C
  000a4	91008362	 add         x2,x27,#0x20
  000a8	90000008	 adrp        x8,|??_C@_09OMPNMEPL@?$CF2d?$CF2d?$CF4d@|
  000ac	91000101	 add         x1,x8,|??_C@_09OMPNMEPL@?$CF2d?$CF2d?$CF4d@|
  000b0	91012360	 add         x0,x27,#0x48
  000b4	94000000	 bl          sscanf_s

; 15   : 
; 16   :     if (iDay > 31 || iDay<1 || iMonth < 1 || iMonth > 12 || iYear<0) {

  000b8	b9402368	 ldr         w8,[x27,#0x20]
  000bc	71007d1f	 cmp         w8,#0x1F
  000c0	5400000c	 bgt         |$LN3@main|
  000c4	b9402368	 ldr         w8,[x27,#0x20]
  000c8	7100051f	 cmp         w8,#1
  000cc	5400000b	 blt         |$LN3@main|
  000d0	b9402f68	 ldr         w8,[x27,#0x2C]
  000d4	7100051f	 cmp         w8,#1
  000d8	5400000b	 blt         |$LN3@main|
  000dc	b9402f68	 ldr         w8,[x27,#0x2C]
  000e0	7100311f	 cmp         w8,#0xC
  000e4	5400000c	 bgt         |$LN3@main|
  000e8	b9403b68	 ldr         w8,[x27,#0x38]
  000ec	7100011f	 cmp         w8,#0
  000f0	5400000a	 bge         |$LN2@main|
  000f4		 |$LN3@main|

; 17   :         cout << "error";

  000f4	90000008	 adrp        x8,|??_C@_05KKCIMGE@error@|
  000f8	91000101	 add         x1,x8,|??_C@_05KKCIMGE@error@|
  000fc	90000008	 adrp        x8,|__imp_?cout@std@@3V?$basic_ostream@DU?$char_traits@D@std@@@1@A|
  00100	f9400100	 ldr         x0,[x8,|__imp_?cout@std@@3V?$basic_ostream@DU?$char_traits@D@std@@@1@A|]
  00104	94000000	 bl          |??$?6U?$char_traits@D@std@@@std@@YAAEAV?$basic_ostream@DU?$char_traits@D@std@@@0@AEAV10@PEBD@Z|

; 18   :         system("pause");

  00108	90000008	 adrp        x8,|??_C@_05PDJBBECF@pause@|
  0010c	91000100	 add         x0,x8,|??_C@_05PDJBBECF@pause@|
  00110	90000008	 adrp        x8,__imp_system
  00114	f9400108	 ldr         x8,[x8,__imp_system]
  00118	d63f0100	 blr         x8

; 19   :         return EXIT_FAILURE;

  0011c	52800020	 mov         w0,#1
  00120	14000094	 b           |$LN1@main|
  00124		 |$LN2@main|

; 20   :     }
; 21   : 
; 22   :     // year
; 23   :     if (leap(iYear)) {

  00124	b9403b60	 ldr         w0,[x27,#0x38]
  00128	94000000	 bl          |?leap@@YA_NH@Z|
  0012c	53001c08	 uxtb        w8,w0
  00130	2a0803e8	 mov         w8,w8
  00134	7100011f	 cmp         w8,#0
  00138	54000000	 beq         |$LN4@main|

; 24   :         cout << " " << endl;

  0013c	90000008	 adrp        x8,|??_C@_0P@KPEAGGJF@?C?n?d?5?b?h?q?n?j?n?q?m?$PL?i@|
  00140	91000101	 add         x1,x8,|??_C@_0P@KPEAGGJF@?C?n?d?5?b?h?q?n?j?n?q?m?$PL?i@|
  00144	90000008	 adrp        x8,|__imp_?cout@std@@3V?$basic_ostream@DU?$char_traits@D@std@@@1@A|
  00148	f9400100	 ldr         x0,[x8,|__imp_?cout@std@@3V?$basic_ostream@DU?$char_traits@D@std@@@1@A|]
  0014c	94000000	 bl          |??$?6U?$char_traits@D@std@@@std@@YAAEAV?$basic_ostream@DU?$char_traits@D@std@@@0@AEAV10@PEBD@Z|
  00150	90000008	 adrp        x8,|??$endl@DU?$char_traits@D@std@@@std@@YAAEAV?$basic_ostream@DU?$char_traits@D@std@@@0@AEAV10@@Z|
  00154	91000101	 add         x1,x8,|??$endl@DU?$char_traits@D@std@@@std@@YAAEAV?$basic_ostream@DU?$char_traits@D@std@@@0@AEAV10@@Z|
  00158	90000008	 adrp        x8,|__imp_??6?$basic_ostream@DU?$char_traits@D@std@@@std@@QEAAAEAV01@P6AAEAV01@AEAV01@@Z@Z|
  0015c	f9400108	 ldr         x8,[x8,|__imp_??6?$basic_ostream@DU?$char_traits@D@std@@@std@@QEAAAEAV01@P6AAEAV01@AEAV01@@Z@Z|]
  00160	d63f0100	 blr         x8

; 25   :     }

  00164	1400000b	 b           |$LN5@main|
  00168		 |$LN4@main|

; 26   :     else cout << "  " << endl;

  00168	90000008	 adrp        x8,|??_C@_0BC@GEBLIKEH@?C?n?d?5?m?e?5?b?h?q?n?j?n?q?m?$PL?i@|
  0016c	91000101	 add         x1,x8,|??_C@_0BC@GEBLIKEH@?C?n?d?5?m?e?5?b?h?q?n?j?n?q?m?$PL?i@|
  00170	90000008	 adrp        x8,|__imp_?cout@std@@3V?$basic_ostream@DU?$char_traits@D@std@@@1@A|
  00174	f9400100	 ldr         x0,[x8,|__imp_?cout@std@@3V?$basic_ostream@DU?$char_traits@D@std@@@1@A|]
  00178	94000000	 bl          |??$?6U?$char_traits@D@std@@@std@@YAAEAV?$basic_ostream@DU?$char_traits@D@std@@@0@AEAV10@PEBD@Z|
  0017c	90000008	 adrp        x8,|??$endl@DU?$char_traits@D@std@@@std@@YAAEAV?$basic_ostream@DU?$char_traits@D@std@@@0@AEAV10@@Z|
  00180	91000101	 add         x1,x8,|??$endl@DU?$char_traits@D@std@@@std@@YAAEAV?$basic_ostream@DU?$char_traits@D@std@@@0@AEAV10@@Z|
  00184	90000008	 adrp        x8,|__imp_??6?$basic_ostream@DU?$char_traits@D@std@@@std@@QEAAAEAV01@P6AAEAV01@AEAV01@@Z@Z|
  00188	f9400108	 ldr         x8,[x8,|__imp_??6?$basic_ostream@DU?$char_traits@D@std@@@std@@QEAAAEAV01@P6AAEAV01@AEAV01@@Z@Z|]
  0018c	d63f0100	 blr         x8
  00190		 |$LN5@main|

; 27   : 
; 28   :     // number of day
; 29   :     int number = numOfDay(iDay, iMonth, leap(iYear));

  00190	b9403b60	 ldr         w0,[x27,#0x38]
  00194	94000000	 bl          |?leap@@YA_NH@Z|
  00198	53001c02	 uxtb        w2,w0
  0019c	2a0203e2	 mov         w2,w2
  001a0	b9402f61	 ldr         w1,[x27,#0x2C]
  001a4	b9402360	 ldr         w0,[x27,#0x20]
  001a8	94000000	 bl          |?numOfDay@@YAHHH_N@Z|
  001ac	2a0003e0	 mov         w0,w0
  001b0	b9006360	 str         w0,[x27,#0x60]

; 30   :     cout << " : " << number << endl;

  001b4	90000008	 adrp        x8,|??_C@_0BD@IKDKPIAI@?O?n?p?$PP?d?j?n?b?$PL?i?5?m?n?l?e?p?3?5@|
  001b8	91000101	 add         x1,x8,|??_C@_0BD@IKDKPIAI@?O?n?p?$PP?d?j?n?b?$PL?i?5?m?n?l?e?p?3?5@|
  001bc	90000008	 adrp        x8,|__imp_?cout@std@@3V?$basic_ostream@DU?$char_traits@D@std@@@1@A|
  001c0	f9400100	 ldr         x0,[x8,|__imp_?cout@std@@3V?$basic_ostream@DU?$char_traits@D@std@@@1@A|]
  001c4	94000000	 bl          |??$?6U?$char_traits@D@std@@@std@@YAAEAV?$basic_ostream@DU?$char_traits@D@std@@@0@AEAV10@PEBD@Z|
  001c8	b9406361	 ldr         w1,[x27,#0x60]
  001cc	90000008	 adrp        x8,|__imp_??6?$basic_ostream@DU?$char_traits@D@std@@@std@@QEAAAEAV01@H@Z|
  001d0	f9400108	 ldr         x8,[x8,|__imp_??6?$basic_ostream@DU?$char_traits@D@std@@@std@@QEAAAEAV01@H@Z|]
  001d4	d63f0100	 blr         x8
  001d8	90000008	 adrp        x8,|??$endl@DU?$char_traits@D@std@@@std@@YAAEAV?$basic_ostream@DU?$char_traits@D@std@@@0@AEAV10@@Z|
  001dc	91000101	 add         x1,x8,|??$endl@DU?$char_traits@D@std@@@std@@YAAEAV?$basic_ostream@DU?$char_traits@D@std@@@0@AEAV10@@Z|
  001e0	90000008	 adrp        x8,|__imp_??6?$basic_ostream@DU?$char_traits@D@std@@@std@@QEAAAEAV01@P6AAEAV01@AEAV01@@Z@Z|
  001e4	f9400108	 ldr         x8,[x8,|__imp_??6?$basic_ostream@DU?$char_traits@D@std@@@std@@QEAAAEAV01@P6AAEAV01@AEAV01@@Z@Z|]
  001e8	d63f0100	 blr         x8

; 31   : 
; 32   :     // birthday
; 33   :     int birthDay = 0;

  001ec	52800008	 mov         w8,#0
  001f0	b9006f68	 str         w8,[x27,#0x6C]

; 34   :     int birthMonth = 0;

  001f4	52800008	 mov         w8,#0
  001f8	b9007b68	 str         w8,[x27,#0x78]

; 35   :     int birthYear = 0;

  001fc	52800008	 mov         w8,#0
  00200	b9008768	 str         w8,[x27,#0x84]

; 36   : 
; 37   :     // input birth date
; 38   :     cout << "  : ";

  00204	90000008	 adrp        x8,|??_C@_0BI@CDMBLJHM@?B?b?e?d?h?r?e?5?d?$OA?r?s?5?p?n?f?d?e?m?h?$PP?3?5@|
  00208	91000101	 add         x1,x8,|??_C@_0BI@CDMBLJHM@?B?b?e?d?h?r?e?5?d?$OA?r?s?5?p?n?f?d?e?m?h?$PP?3?5@|
  0020c	90000008	 adrp        x8,|__imp_?cout@std@@3V?$basic_ostream@DU?$char_traits@D@std@@@1@A|
  00210	f9400100	 ldr         x0,[x8,|__imp_?cout@std@@3V?$basic_ostream@DU?$char_traits@D@std@@@1@A|]
  00214	94000000	 bl          |??$?6U?$char_traits@D@std@@@std@@YAAEAV?$basic_ostream@DU?$char_traits@D@std@@@0@AEAV10@PEBD@Z|

; 39   :     cin >> input;

  00218	91012361	 add         x1,x27,#0x48
  0021c	90000008	 adrp        x8,|__imp_?cin@std@@3V?$basic_istream@DU?$char_traits@D@std@@@1@A|
  00220	f9400100	 ldr         x0,[x8,|__imp_?cin@std@@3V?$basic_istream@DU?$char_traits@D@std@@@1@A|]
  00224	94000000	 bl          |??$?5DU?$char_traits@D@std@@@std@@YAAEAV?$basic_istream@DU?$char_traits@D@std@@@0@AEAV10@PEAD@Z|

; 40   : 
; 41   :     sscanf_s(input, "%2d%2d%4d", &birthDay, &birthMonth, &birthYear);

  00228	91021364	 add         x4,x27,#0x84
  0022c	9101e363	 add         x3,x27,#0x78
  00230	9101b362	 add         x2,x27,#0x6C
  00234	90000008	 adrp        x8,|??_C@_09OMPNMEPL@?$CF2d?$CF2d?$CF4d@|
  00238	91000101	 add         x1,x8,|??_C@_09OMPNMEPL@?$CF2d?$CF2d?$CF4d@|
  0023c	91012360	 add         x0,x27,#0x48
  00240	94000000	 bl          sscanf_s

; 42   : 
; 43   :     if (birthDay > 31 || birthDay < 0 || birthMonth < 0 || birthMonth > 12 || birthYear < 0) {

  00244	b9406f68	 ldr         w8,[x27,#0x6C]
  00248	71007d1f	 cmp         w8,#0x1F
  0024c	5400000c	 bgt         |$LN7@main|
  00250	b9406f68	 ldr         w8,[x27,#0x6C]
  00254	7100011f	 cmp         w8,#0
  00258	5400000b	 blt         |$LN7@main|
  0025c	b9407b68	 ldr         w8,[x27,#0x78]
  00260	7100011f	 cmp         w8,#0
  00264	5400000b	 blt         |$LN7@main|
  00268	b9407b68	 ldr         w8,[x27,#0x78]
  0026c	7100311f	 cmp         w8,#0xC
  00270	5400000c	 bgt         |$LN7@main|
  00274	b9408768	 ldr         w8,[x27,#0x84]
  00278	7100011f	 cmp         w8,#0
  0027c	5400000a	 bge         |$LN6@main|
  00280		 |$LN7@main|

; 44   :         cout << "error";

  00280	90000008	 adrp        x8,|??_C@_05KKCIMGE@error@|
  00284	91000101	 add         x1,x8,|??_C@_05KKCIMGE@error@|
  00288	90000008	 adrp        x8,|__imp_?cout@std@@3V?$basic_ostream@DU?$char_traits@D@std@@@1@A|
  0028c	f9400100	 ldr         x0,[x8,|__imp_?cout@std@@3V?$basic_ostream@DU?$char_traits@D@std@@@1@A|]
  00290	94000000	 bl          |??$?6U?$char_traits@D@std@@@std@@YAAEAV?$basic_ostream@DU?$char_traits@D@std@@@0@AEAV10@PEBD@Z|

; 45   :         system("pause");

  00294	90000008	 adrp        x8,|??_C@_05PDJBBECF@pause@|
  00298	91000100	 add         x0,x8,|??_C@_05PDJBBECF@pause@|
  0029c	90000008	 adrp        x8,__imp_system
  002a0	f9400108	 ldr         x8,[x8,__imp_system]
  002a4	d63f0100	 blr         x8

; 46   :         return EXIT_FAILURE;

  002a8	52800020	 mov         w0,#1
  002ac	14000031	 b           |$LN1@main|
  002b0		 |$LN6@main|

; 47   :     }
; 48   : 
; 49   :     int myBirthday = numOfDay(birthDay, birthMonth, leap(birthYear));

  002b0	b9408760	 ldr         w0,[x27,#0x84]
  002b4	94000000	 bl          |?leap@@YA_NH@Z|
  002b8	53001c02	 uxtb        w2,w0
  002bc	2a0203e2	 mov         w2,w2
  002c0	b9407b61	 ldr         w1,[x27,#0x78]
  002c4	b9406f60	 ldr         w0,[x27,#0x6C]
  002c8	94000000	 bl          |?numOfDay@@YAHHH_N@Z|
  002cc	2a0003e0	 mov         w0,w0
  002d0	b9009360	 str         w0,[x27,#0x90]

; 50   : 
; 51   :     int nearestBirthday = 0;

  002d4	52800008	 mov         w8,#0
  002d8	b9009f68	 str         w8,[x27,#0x9C]

; 52   :     if (myBirthday >= number) {

  002dc	b9406369	 ldr         w9,[x27,#0x60]
  002e0	b9409368	 ldr         w8,[x27,#0x90]
  002e4	6b09011f	 cmp         w8,w9
  002e8	5400000b	 blt         |$LN8@main|

; 53   :         nearestBirthday = myBirthday - number;

  002ec	b9409369	 ldr         w9,[x27,#0x90]
  002f0	b9406368	 ldr         w8,[x27,#0x60]
  002f4	4b080128	 sub         w8,w9,w8
  002f8	b9009f68	 str         w8,[x27,#0x9C]

; 54   :     }

  002fc	14000006	 b           |$LN9@main|
  00300		 |$LN8@main|

; 55   :     else nearestBirthday = 365 + (myBirthday - number);

  00300	b9409369	 ldr         w9,[x27,#0x90]
  00304	b9406368	 ldr         w8,[x27,#0x60]
  00308	4b080128	 sub         w8,w9,w8
  0030c	1105b508	 add         w8,w8,#0x16D
  00310	b9009f68	 str         w8,[x27,#0x9C]
  00314		 |$LN9@main|

; 56   : 
; 57   :     cout << "  : " << nearestBirthday << " " << endl;

  00314	90000008	 adrp        x8,|??_C@_0BF@HGDDONBM@?A?k?h?f?$OA?i?x?h?i?5?d?p?5?w?e?p?e?g?3?5@|
  00318	91000101	 add         x1,x8,|??_C@_0BF@HGDDONBM@?A?k?h?f?$OA?i?x?h?i?5?d?p?5?w?e?p?e?g?3?5@|
  0031c	90000008	 adrp        x8,|__imp_?cout@std@@3V?$basic_ostream@DU?$char_traits@D@std@@@1@A|
  00320	f9400100	 ldr         x0,[x8,|__imp_?cout@std@@3V?$basic_ostream@DU?$char_traits@D@std@@@1@A|]
  00324	94000000	 bl          |??$?6U?$char_traits@D@std@@@std@@YAAEAV?$basic_ostream@DU?$char_traits@D@std@@@0@AEAV10@PEBD@Z|
  00328	b9409f61	 ldr         w1,[x27,#0x9C]
  0032c	90000008	 adrp        x8,|__imp_??6?$basic_ostream@DU?$char_traits@D@std@@@std@@QEAAAEAV01@H@Z|
  00330	f9400108	 ldr         x8,[x8,|__imp_??6?$basic_ostream@DU?$char_traits@D@std@@@std@@QEAAAEAV01@H@Z|]
  00334	d63f0100	 blr         x8
  00338	90000008	 adrp        x8,|??_C@_05JAEFPJHO@?5?d?m?e?i@|
  0033c	91000101	 add         x1,x8,|??_C@_05JAEFPJHO@?5?d?m?e?i@|
  00340	94000000	 bl          |??$?6U?$char_traits@D@std@@@std@@YAAEAV?$basic_ostream@DU?$char_traits@D@std@@@0@AEAV10@PEBD@Z|
  00344	90000008	 adrp        x8,|??$endl@DU?$char_traits@D@std@@@std@@YAAEAV?$basic_ostream@DU?$char_traits@D@std@@@0@AEAV10@@Z|
  00348	91000101	 add         x1,x8,|??$endl@DU?$char_traits@D@std@@@std@@YAAEAV?$basic_ostream@DU?$char_traits@D@std@@@0@AEAV10@@Z|
  0034c	90000008	 adrp        x8,|__imp_??6?$basic_ostream@DU?$char_traits@D@std@@@std@@QEAAAEAV01@P6AAEAV01@AEAV01@@Z@Z|
  00350	f9400108	 ldr         x8,[x8,|__imp_??6?$basic_ostream@DU?$char_traits@D@std@@@std@@QEAAAEAV01@P6AAEAV01@AEAV01@@Z@Z|]
  00354	d63f0100	 blr         x8

; 58   : 
; 59   :     system("pause");

  00358	90000008	 adrp        x8,|??_C@_05PDJBBECF@pause@|
  0035c	91000100	 add         x0,x8,|??_C@_05PDJBBECF@pause@|
  00360	90000008	 adrp        x8,__imp_system
  00364	f9400108	 ldr         x8,[x8,__imp_system]
  00368	d63f0100	 blr         x8

; 60   :     return 0;

  0036c	52800000	 mov         w0,#0
  00370		 |$LN1@main|
  00370	aa0003f4	 mov         x20,x0
  00374	aa0103f5	 mov         x21,x1
  00378	aa1b03e0	 mov         x0,x27
  0037c	90000008	 adrp        x8,|main$rtcFrameData|
  00380	91000101	 add         x1,x8,|main$rtcFrameData|
  00384	94000000	 bl          _RTC_CheckStackVars
  00388	aa1403e0	 mov         x0,x20
  0038c	aa1503e1	 mov         x1,x21
  00390	9105c3ff	 add         sp,sp,#0x170
  00394	94000000	 bl          __security_pop_cookie
  00398	f94017fb	 ldr         x27,[sp,#0x28]
  0039c	f94013f6	 ldr         x22,[sp,#0x20]
  003a0	a94157f4	 ldp         x20,x21,[sp,#0x10]
  003a4	a8c37bfd	 ldp         fp,lr,[sp],#0x30
  003a8	d65f03c0	 ret

			 ENDP  ; |main|

; Function compile flags: /Odtp /RTCsu /ZI
; File C:\Program Files\Microsoft Visual Studio\2022\Community\VC\Tools\MSVC\14.34.31933\include\type_traits

	AREA	|.text$mn|, CODE, ARM64

  00000		 |??$forward@AEAPEAV_Facet_base@std@@@std@@YAAEAPEAV_Facet_base@0@AEAPEAV10@@Z| PROC ; std::forward<std::_Facet_base * &>

; 1425 :     remove_reference_t<_Ty>& _Arg) noexcept { // forward an lvalue as either an lvalue or an rvalue

  00000		 |$LN3|
  00000	a9bd7bfd	 stp         fp,lr,[sp,#-0x30]!
  00004	a90157f4	 stp         x20,x21,[sp,#0x10]
  00008	f90013f6	 str         x22,[sp,#0x20]
  0000c	f90017fb	 str         x27,[sp,#0x28]
  00010	910003fd	 mov         fp,sp
  00014	d10383ff	 sub         sp,sp,#0xE0
  00018	910003fb	 mov         x27,sp
  0001c	b202e7f4	 movi        x20,#-0x3333333333333334
  00020	b202e7f5	 movi        x21,#-0x3333333333333334
  00024	a90057f4	 stp         x20,x21,[sp]
  00028	a90157f4	 stp         x20,x21,[sp,#0x10]
  0002c	f9000760	 str         x0,[x27,#8]
  00030	90000008	 adrp        x8,__87BD5CA6_type_traits
  00034	91000100	 add         x0,x8,__87BD5CA6_type_traits
  00038	94000000	 bl          __CheckForDebuggerJustMyCode

; 1426 :     return static_cast<_Ty&&>(_Arg);

  0003c	f9400760	 ldr         x0,[x27,#8]
  00040	910003bf	 mov         sp,fp
  00044	f94017fb	 ldr         x27,[sp,#0x28]
  00048	f94013f6	 ldr         x22,[sp,#0x20]
  0004c	a94157f4	 ldp         x20,x21,[sp,#0x10]
  00050	a8c37bfd	 ldp         fp,lr,[sp],#0x30
  00054	d65f03c0	 ret

			 ENDP  ; |??$forward@AEAPEAV_Facet_base@std@@@std@@YAAEAPEAV_Facet_base@0@AEAPEAV10@@Z|, std::forward<std::_Facet_base * &>

; Function compile flags: /Odtp /RTCsu /ZI
; File C:\Program Files\Microsoft Visual Studio\2022\Community\VC\Tools\MSVC\14.34.31933\include\xmemory

	AREA	|.text$mn|, CODE, ARM64

  00000		 |??$?0AEAPEAV_Facet_base@std@@@?$_Compressed_pair@U?$default_delete@V_Facet_base@std@@@std@@PEAV_Facet_base@2@$00@std@@QEAA@U_Zero_then_variadic_args_t@1@AEAPEAV_Facet_base@1@@Z| PROC ; std::_Compressed_pair<std::default_delete<std::_Facet_base>,std::_Facet_base *,1>::_Compressed_pair<std::default_delete<std::_Facet_base>,std::_Facet_base *,1><std::_Facet_base * &>

; 1376 :         : _Ty1(), _Myval2(_STD forward<_Other2>(_Val2)...) {}

  00000		 |$LN3|
  00000	a9bd7bfd	 stp         fp,lr,[sp,#-0x30]!
  00004	a90157f4	 stp         x20,x21,[sp,#0x10]
  00008	f90013f6	 str         x22,[sp,#0x20]
  0000c	f90017fb	 str         x27,[sp,#0x28]
  00010	910003fd	 mov         fp,sp
  00014	d103c3ff	 sub         sp,sp,#0xF0
  00018	910003fb	 mov         x27,sp
  0001c	b202e7f4	 movi        x20,#-0x3333333333333334
  00020	b202e7f5	 movi        x21,#-0x3333333333333334
  00024	a90057f4	 stp         x20,x21,[sp]
  00028	a90157f4	 stp         x20,x21,[sp,#0x10]
  0002c	a90257f4	 stp         x20,x21,[sp,#0x20]
  00030	f9001360	 str         x0,[x27,#0x20]
  00034	39001361	 strb        w1,[x27,#4]
  00038	f9000b62	 str         x2,[x27,#0x10]
  0003c	90000008	 adrp        x8,__C3CE3678_xmemory
  00040	91000100	 add         x0,x8,__C3CE3678_xmemory
  00044	94000000	 bl          __CheckForDebuggerJustMyCode
  00048	f9400b60	 ldr         x0,[x27,#0x10]
  0004c	94000000	 bl          |??$forward@AEAPEAV_Facet_base@std@@@std@@YAAEAPEAV_Facet_base@0@AEAPEAV10@@Z|
  00050	f9401369	 ldr         x9,[x27,#0x20]
  00054	f9400008	 ldr         x8,[x0]
  00058	f9000128	 str         x8,[x9]
  0005c	f9401360	 ldr         x0,[x27,#0x20]
  00060	aa0003f4	 mov         x20,x0
  00064	aa0103f5	 mov         x21,x1
  00068	aa1b03e0	 mov         x0,x27
  0006c	90000008	 adrp        x8,|??$?0AEAPEAV_Facet_base@std@@@?$_Compressed_pair@U?$default_delete@V_Facet_base@std@@@std@@PEAV_Facet_base@2@$00@std@@QEAA@U_Zero_then_variadic_args_t@1@AEAPEAV_Facet_base@1@@Z$rtcFrameData|
  00070	91000101	 add         x1,x8,|??$?0AEAPEAV_Facet_base@std@@@?$_Compressed_pair@U?$default_delete@V_Facet_base@std@@@std@@PEAV_Facet_base@2@$00@std@@QEAA@U_Zero_then_variadic_args_t@1@AEAPEAV_Facet_base@1@@Z$rtcFrameData|
  00074	94000000	 bl          _RTC_CheckStackVars
  00078	aa1403e0	 mov         x0,x20
  0007c	aa1503e1	 mov         x1,x21
  00080	910003bf	 mov         sp,fp
  00084	f94017fb	 ldr         x27,[sp,#0x28]
  00088	f94013f6	 ldr         x22,[sp,#0x20]
  0008c	a94157f4	 ldp         x20,x21,[sp,#0x10]
  00090	a8c37bfd	 ldp         fp,lr,[sp],#0x30
  00094	d65f03c0	 ret

			 ENDP  ; |??$?0AEAPEAV_Facet_base@std@@@?$_Compressed_pair@U?$default_delete@V_Facet_base@std@@@std@@PEAV_Facet_base@2@$00@std@@QEAA@U_Zero_then_variadic_args_t@1@AEAPEAV_Facet_base@1@@Z|, std::_Compressed_pair<std::default_delete<std::_Facet_base>,std::_Facet_base *,1>::_Compressed_pair<std::default_delete<std::_Facet_base>,std::_Facet_base *,1><std::_Facet_base * &>

; Function compile flags: /Odtp /RTCsu /ZI
; File C:\Program Files\Microsoft Visual Studio\2022\Community\VC\Tools\MSVC\14.34.31933\include\utility

	AREA	|.text$mn|, CODE, ARM64

  00000		 |??$exchange@PEAV_Facet_base@std@@$$T@std@@YAPEAV_Facet_base@0@AEAPEAV10@$$QEA$$T@Z| PROC ; std::exchange<std::_Facet_base *,std::nullptr_t>

; 651  :     conjunction_v<is_nothrow_move_constructible<_Ty>, is_nothrow_assignable<_Ty&, _Other>>) {

  00000		 |$LN3|
  00000	a9bd7bfd	 stp         fp,lr,[sp,#-0x30]!
  00004	a90157f4	 stp         x20,x21,[sp,#0x10]
  00008	f90013f6	 str         x22,[sp,#0x20]
  0000c	f90017fb	 str         x27,[sp,#0x28]
  00010	910003fd	 mov         fp,sp
  00014	d10403ff	 sub         sp,sp,#0x100
  00018	910003fb	 mov         x27,sp
  0001c	b202e7f4	 movi        x20,#-0x3333333333333334
  00020	b202e7f5	 movi        x21,#-0x3333333333333334
  00024	a90057f4	 stp         x20,x21,[sp]
  00028	a90157f4	 stp         x20,x21,[sp,#0x10]
  0002c	a90257f4	 stp         x20,x21,[sp,#0x20]
  00030	a90357f4	 stp         x20,x21,[sp,#0x30]
  00034	f9000760	 str         x0,[x27,#8]
  00038	f9000f61	 str         x1,[x27,#0x18]
  0003c	90000008	 adrp        x8,__A95B55BB_utility
  00040	91000100	 add         x0,x8,__A95B55BB_utility
  00044	94000000	 bl          __CheckForDebuggerJustMyCode

; 652  :     // assign _New_val to _Val, return previous _Val
; 653  :     _Ty _Old_val = static_cast<_Ty&&>(_Val);

  00048	f9400768	 ldr         x8,[x27,#8]
  0004c	f9400108	 ldr         x8,[x8]
  00050	f9001768	 str         x8,[x27,#0x28]

; 654  :     _Val         = static_cast<_Other&&>(_New_val);

  00054	f9400769	 ldr         x9,[x27,#8]
  00058	f9400f68	 ldr         x8,[x27,#0x18]
  0005c	f9400108	 ldr         x8,[x8]
  00060	f9000128	 str         x8,[x9]

; 655  :     return _Old_val;

  00064	f9401760	 ldr         x0,[x27,#0x28]
  00068	910003bf	 mov         sp,fp
  0006c	f94017fb	 ldr         x27,[sp,#0x28]
  00070	f94013f6	 ldr         x22,[sp,#0x20]
  00074	a94157f4	 ldp         x20,x21,[sp,#0x10]
  00078	a8c37bfd	 ldp         fp,lr,[sp],#0x30
  0007c	d65f03c0	 ret

			 ENDP  ; |??$exchange@PEAV_Facet_base@std@@$$T@std@@YAPEAV_Facet_base@0@AEAPEAV10@$$QEA$$T@Z|, std::exchange<std::_Facet_base *,std::nullptr_t>

; Function compile flags: /Odtp /RTCsu /ZI
; File C:\Program Files\Microsoft Visual Studio\2022\Community\VC\Tools\MSVC\14.34.31933\include\memory

	AREA	|.text$mn|, CODE, ARM64

  00000		 |??$?0U?$default_delete@V_Facet_base@std@@@std@@$0A@@?$unique_ptr@V_Facet_base@std@@U?$default_delete@V_Facet_base@std@@@2@@std@@QEAA@PEAV_Facet_base@1@@Z| PROC ; std::unique_ptr<std::_Facet_base,std::default_delete<std::_Facet_base> >::unique_ptr<std::_Facet_base,std::default_delete<std::_Facet_base> ><std::default_delete<std::_Facet_base>,0>

; 3159 :     _CONSTEXPR23 explicit unique_ptr(pointer _Ptr) noexcept : _Mypair(_Zero_then_variadic_args_t{}, _Ptr) {}

  00000		 |$LN3|
  00000	a9bd7bfd	 stp         fp,lr,[sp,#-0x30]!
  00004	a90157f4	 stp         x20,x21,[sp,#0x10]
  00008	f90013f6	 str         x22,[sp,#0x20]
  0000c	f90017fb	 str         x27,[sp,#0x28]
  00010	910003fd	 mov         fp,sp
  00014	d103c3ff	 sub         sp,sp,#0xF0
  00018	910003fb	 mov         x27,sp
  0001c	b202e7f4	 movi        x20,#-0x3333333333333334
  00020	b202e7f5	 movi        x21,#-0x3333333333333334
  00024	a90057f4	 stp         x20,x21,[sp]
  00028	a90157f4	 stp         x20,x21,[sp,#0x10]
  0002c	a90257f4	 stp         x20,x21,[sp,#0x20]
  00030	f9000f60	 str         x0,[x27,#0x18]
  00034	f9000761	 str         x1,[x27,#8]
  00038	90000008	 adrp        x8,__0F5D4878_memory
  0003c	91000100	 add         x0,x8,__0F5D4878_memory
  00040	94000000	 bl          __CheckForDebuggerJustMyCode
  00044	f9400f60	 ldr         x0,[x27,#0x18]
  00048	91002362	 add         x2,x27,#8
  0004c	3943a361	 ldrb        w1,[x27,#0xE8]
  00050	94000000	 bl          |??$?0AEAPEAV_Facet_base@std@@@?$_Compressed_pair@U?$default_delete@V_Facet_base@std@@@std@@PEAV_Facet_base@2@$00@std@@QEAA@U_Zero_then_variadic_args_t@1@AEAPEAV_Facet_base@1@@Z|
  00054	f9400f60	 ldr         x0,[x27,#0x18]
  00058	aa0003f4	 mov         x20,x0
  0005c	aa0103f5	 mov         x21,x1
  00060	aa1b03e0	 mov         x0,x27
  00064	90000008	 adrp        x8,|??$?0U?$default_delete@V_Facet_base@std@@@std@@$0A@@?$unique_ptr@V_Facet_base@std@@U?$default_delete@V_Facet_base@std@@@2@@std@@QEAA@PEAV_Facet_base@1@@Z$rtcFrameData|
  00068	91000101	 add         x1,x8,|??$?0U?$default_delete@V_Facet_base@std@@@std@@$0A@@?$unique_ptr@V_Facet_base@std@@U?$default_delete@V_Facet_base@std@@@2@@std@@QEAA@PEAV_Facet_base@1@@Z$rtcFrameData|
  0006c	94000000	 bl          _RTC_CheckStackVars
  00070	aa1403e0	 mov         x0,x20
  00074	aa1503e1	 mov         x1,x21
  00078	910003bf	 mov         sp,fp
  0007c	f94017fb	 ldr         x27,[sp,#0x28]
  00080	f94013f6	 ldr         x22,[sp,#0x20]
  00084	a94157f4	 ldp         x20,x21,[sp,#0x10]
  00088	a8c37bfd	 ldp         fp,lr,[sp],#0x30
  0008c	d65f03c0	 ret

			 ENDP  ; |??$?0U?$default_delete@V_Facet_base@std@@@std@@$0A@@?$unique_ptr@V_Facet_base@std@@U?$default_delete@V_Facet_base@std@@@2@@std@@QEAA@PEAV_Facet_base@1@@Z|, std::unique_ptr<std::_Facet_base,std::default_delete<std::_Facet_base> >::unique_ptr<std::_Facet_base,std::default_delete<std::_Facet_base> ><std::default_delete<std::_Facet_base>,0>

; Function compile flags: /Odtp /RTCsu /ZI
; File C:\Program Files\Microsoft Visual Studio\2022\Community\VC\Tools\MSVC\14.34.31933\include\xlocale

	AREA	|.text$mn|, CODE, ARM64

  00000		 |??$use_facet@V?$ctype@D@std@@@std@@YAAEBV?$ctype@D@0@AEBVlocale@0@@Z| PROC ; std::use_facet<std::ctype<char> >

; 422  : const _Facet& __CRTDECL use_facet(const locale& _Loc) { // get facet reference from locale

  00000		 |$LN12|
  00000	a9bd7bfd	 stp         fp,lr,[sp,#-0x30]!
  00004	a90157f4	 stp         x20,x21,[sp,#0x10]
  00008	f90013f6	 str         x22,[sp,#0x20]
  0000c	f90017fb	 str         x27,[sp,#0x28]
  00010	910003fd	 mov         fp,sp
  00014	94000000	 bl          __security_push_cookie
  00018	d10583ff	 sub         sp,sp,#0x160
  0001c	910003fb	 mov         x27,sp
  00020	aa0003f4	 mov         x20,x0
  00024	aa0103f5	 mov         x21,x1
  00028	aa0203f6	 mov         x22,x2
  0002c	910003e0	 mov         x0,sp
  00030	b202e7e1	 movi        x1,#-0x3333333333333334
  00034	d2801402	 mov         x2,#0xA0
  00038	94000000	 bl          __RTC_memset
  0003c	aa1403e0	 mov         x0,x20
  00040	aa1503e1	 mov         x1,x21
  00044	aa1603e2	 mov         x2,x22
  00048	92800030	 mov         xip0,#-2
  0004c	f900af70	 str         xip0,[x27,#0x158]
  00050	f9000760	 str         x0,[x27,#8]
  00054	90000008	 adrp        x8,__6823C4D5_xlocale
  00058	91000100	 add         x0,x8,__6823C4D5_xlocale
  0005c	94000000	 bl          __CheckForDebuggerJustMyCode

; 423  :     _BEGIN_LOCK(_LOCK_LOCALE) // the thread lock, make get atomic

  00060	52800001	 mov         w1,#0
  00064	91006360	 add         x0,x27,#0x18
  00068	90000008	 adrp        x8,|__imp_??0_Lockit@std@@QEAA@H@Z|
  0006c	f9400108	 ldr         x8,[x8,|__imp_??0_Lockit@std@@QEAA@H@Z|]
  00070	d63f0100	 blr         x8
  00074	d503201f	 nop

; 424  :     const locale::facet* _Psave = _Facetptr<_Facet>::_Psave; // static pointer to lazy facet

  00078	90000008	 adrp        x8,|?_Psave@?$_Facetptr@V?$ctype@D@std@@@std@@2PEBVfacet@locale@2@EB|
  0007c	f9400108	 ldr         x8,[x8,|?_Psave@?$_Facetptr@V?$ctype@D@std@@@std@@2PEBVfacet@locale@2@EB|]
  00080	f9001768	 str         x8,[x27,#0x28]

; 425  : 
; 426  :     const size_t _Id         = _Facet::id;

  00084	90000008	 adrp        x8,|__imp_?id@?$ctype@D@std@@2V0locale@2@A|
  00088	f9400100	 ldr         x0,[x8,|__imp_?id@?$ctype@D@std@@2V0locale@2@A|]
  0008c	90000008	 adrp        x8,|__imp_??Bid@locale@std@@QEAA_KXZ|
  00090	f9400108	 ldr         x8,[x8,|__imp_??Bid@locale@std@@QEAA_KXZ|]
  00094	d63f0100	 blr         x8
  00098	f9001f60	 str         x0,[x27,#0x38]

; 427  :     const locale::facet* _Pf = _Loc._Getfacet(_Id);

  0009c	f9401f61	 ldr         x1,[x27,#0x38]
  000a0	f9400760	 ldr         x0,[x27,#8]
  000a4	94000000	 bl          |?_Getfacet@locale@std@@QEBAPEBVfacet@12@_K@Z|
  000a8	f9002760	 str         x0,[x27,#0x48]

; 428  : 
; 429  :     if (!_Pf) {

  000ac	f9402768	 ldr         x8,[x27,#0x48]
  000b0	f100011f	 cmp         x8,#0
  000b4	54000001	 bne         |$LN2@use_facet|

; 430  :         if (_Psave) {

  000b8	f9401768	 ldr         x8,[x27,#0x28]
  000bc	f100011f	 cmp         x8,#0
  000c0	54000000	 beq         |$LN3@use_facet|

; 431  :             _Pf = _Psave; // lazy facet already allocated

  000c4	f9401768	 ldr         x8,[x27,#0x28]
  000c8	f9002768	 str         x8,[x27,#0x48]
  000cc	14000026	 b           |$LN2@use_facet|
  000d0		 |$LN3@use_facet|

; 432  :         } else if (_Facet::_Getcat(&_Psave, &_Loc) == static_cast<size_t>(-1)) {

  000d0	f9400761	 ldr         x1,[x27,#8]
  000d4	9100a360	 add         x0,x27,#0x28
  000d8	90000008	 adrp        x8,|__imp_?_Getcat@?$ctype@D@std@@SA_KPEAPEBVfacet@locale@2@PEBV42@@Z|
  000dc	f9400108	 ldr         x8,[x8,|__imp_?_Getcat@?$ctype@D@std@@SA_KPEAPEBVfacet@locale@2@PEBV42@@Z|]
  000e0	d63f0100	 blr         x8
  000e4	b100041f	 cmn         x0,#1
  000e8	54000001	 bne         |$LN5@use_facet|

; 433  : #if _HAS_EXCEPTIONS
; 434  :             _Throw_bad_cast(); // lazy disallowed

  000ec	94000000	 bl          |?_Throw_bad_cast@std@@YAXXZ|
  000f0	d503201f	 nop
  000f4		 |$LN11@use_facet|

; 435  : #else // _HAS_EXCEPTIONS
; 436  :             _CSTD abort(); // lazy disallowed
; 437  : #endif // _HAS_EXCEPTIONS
; 438  :         } else { // queue up lazy facet for destruction

  000f4	1400001c	 b           |$LN2@use_facet|
  000f8		 |$LN5@use_facet|

; 439  :             auto _Pfmod = const_cast<locale::facet*>(_Psave);

  000f8	f9401768	 ldr         x8,[x27,#0x28]
  000fc	f9002f68	 str         x8,[x27,#0x58]

; 440  :             unique_ptr<_Facet_base> _Psave_guard(static_cast<_Facet_base*>(_Pfmod));

  00100	d2800101	 mov         x1,#8
  00104	9101a360	 add         x0,x27,#0x68
  00108	94000000	 bl          |?__autoclassinit2@?$unique_ptr@V_Facet_base@std@@U?$default_delete@V_Facet_base@std@@@2@@std@@QEAAX_K@Z|
  0010c	f9402f61	 ldr         x1,[x27,#0x58]
  00110	9101a360	 add         x0,x27,#0x68
  00114	94000000	 bl          |??$?0U?$default_delete@V_Facet_base@std@@@std@@$0A@@?$unique_ptr@V_Facet_base@std@@U?$default_delete@V_Facet_base@std@@@2@@std@@QEAA@PEAV_Facet_base@1@@Z|
  00118	d503201f	 nop

; 441  : 
; 442  : #if defined(_M_CEE)
; 443  :             _Facet_Register_m(_Pfmod);
; 444  : #else // defined(_M_CEE)
; 445  :             _Facet_Register(_Pfmod);

  0011c	f9402f60	 ldr         x0,[x27,#0x58]
  00120	94000000	 bl          |?_Facet_Register@std@@YAXPEAV_Facet_base@1@@Z|

; 446  : #endif // defined(_M_CEE)
; 447  : 
; 448  :             _Pfmod->_Incref();

  00124	f9402f68	 ldr         x8,[x27,#0x58]
  00128	f9400108	 ldr         x8,[x8]
  0012c	91002108	 add         x8,x8,#8
  00130	f9402f60	 ldr         x0,[x27,#0x58]
  00134	f9400108	 ldr         x8,[x8]
  00138	d63f0100	 blr         x8

; 449  :             _Facetptr<_Facet>::_Psave = _Psave;

  0013c	90000009	 adrp        x9,|?_Psave@?$_Facetptr@V?$ctype@D@std@@@std@@2PEBVfacet@locale@2@EB|
  00140	f9401768	 ldr         x8,[x27,#0x28]
  00144	f9000128	 str         x8,[x9,|?_Psave@?$_Facetptr@V?$ctype@D@std@@@std@@2PEBVfacet@locale@2@EB|]

; 450  :             _Pf                       = _Psave;

  00148	f9401768	 ldr         x8,[x27,#0x28]
  0014c	f9002768	 str         x8,[x27,#0x48]

; 451  : 
; 452  :             (void) _Psave_guard.release();

  00150	9101a360	 add         x0,x27,#0x68
  00154	94000000	 bl          |?release@?$unique_ptr@V_Facet_base@std@@U?$default_delete@V_Facet_base@std@@@2@@std@@QEAAPEAV_Facet_base@2@XZ|
  00158	d503201f	 nop

; 453  :         }

  0015c	9101a360	 add         x0,x27,#0x68
  00160	94000000	 bl          |??1?$unique_ptr@V_Facet_base@std@@U?$default_delete@V_Facet_base@std@@@2@@std@@QEAA@XZ|
  00164		 |$LN2@use_facet|

; 454  :     }
; 455  : 
; 456  :     return static_cast<const _Facet&>(*_Pf); // should be dynamic_cast

  00164	f9402768	 ldr         x8,[x27,#0x48]
  00168	f900a768	 str         x8,[x27,#0x148]
  0016c	91006360	 add         x0,x27,#0x18
  00170	90000008	 adrp        x8,|__imp_??1_Lockit@std@@QEAA@XZ|
  00174	f9400108	 ldr         x8,[x8,|__imp_??1_Lockit@std@@QEAA@XZ|]
  00178	d63f0100	 blr         x8
  0017c	f940a760	 ldr         x0,[x27,#0x148]
  00180	aa0003f4	 mov         x20,x0
  00184	aa0103f5	 mov         x21,x1
  00188	aa1b03e0	 mov         x0,x27
  0018c	90000008	 adrp        x8,|??$use_facet@V?$ctype@D@std@@@std@@YAAEBV?$ctype@D@0@AEBVlocale@0@@Z$rtcFrameData|
  00190	91000101	 add         x1,x8,|??$use_facet@V?$ctype@D@std@@@std@@YAAEBV?$ctype@D@0@AEBVlocale@0@@Z$rtcFrameData|
  00194	94000000	 bl          _RTC_CheckStackVars
  00198	aa1403e0	 mov         x0,x20
  0019c	aa1503e1	 mov         x1,x21
  001a0	910583ff	 add         sp,sp,#0x160
  001a4	94000000	 bl          __security_pop_cookie
  001a8	f94017fb	 ldr         x27,[sp,#0x28]
  001ac	f94013f6	 ldr         x22,[sp,#0x20]
  001b0	a94157f4	 ldp         x20,x21,[sp,#0x10]
  001b4	a8c37bfd	 ldp         fp,lr,[sp],#0x30
  001b8	d65f03c0	 ret
  001bc		 |$LN10@use_facet|

			 ENDP  ; |??$use_facet@V?$ctype@D@std@@@std@@YAAEBV?$ctype@D@0@AEBVlocale@0@@Z|, std::use_facet<std::ctype<char> >

; Function compile flags: /Odtp /RTCsu /ZI

	AREA	|.text$x|, DATA

  00000		 |?dtor$0@?0???$use_facet@V?$ctype@D@std@@@std@@YAAEBV?$ctype@D@0@AEBVlocale@0@@Z@4HA| PROC ; `std::use_facet<std::ctype<char> >'::`1'::dtor$0
  00000	a9bd7bfd	 stp         fp,lr,[sp,#-0x30]!
  00004	a90157f4	 stp         x20,x21,[sp,#0x10]
  00008	f90013f6	 str         x22,[sp,#0x20]
  0000c	f90017fb	 str         x27,[sp,#0x28]
  00010	91006360	 add         x0,x27,#0x18
  00014	90000008	 adrp        x8,|__imp_??1_Lockit@std@@QEAA@XZ|
  00018	f9400108	 ldr         x8,[x8,|__imp_??1_Lockit@std@@QEAA@XZ|]
  0001c	d63f0100	 blr         x8
  00020	f94017fb	 ldr         x27,[sp,#0x28]
  00024	f94013f6	 ldr         x22,[sp,#0x20]
  00028	a94157f4	 ldp         x20,x21,[sp,#0x10]
  0002c	a8c37bfd	 ldp         fp,lr,[sp],#0x30
  00030	d65f03c0	 ret

			 ENDP  ; |??$use_facet@V?$ctype@D@std@@@std@@YAAEBV?$ctype@D@0@AEBVlocale@0@@Z|, std::use_facet<std::ctype<char> >

; Function compile flags: /Odtp /RTCsu /ZI

	AREA	|.text$x|, DATA

  00000		 |?dtor$1@?0???$use_facet@V?$ctype@D@std@@@std@@YAAEBV?$ctype@D@0@AEBVlocale@0@@Z@4HA| PROC ; `std::use_facet<std::ctype<char> >'::`1'::dtor$1
  00000	a9bd7bfd	 stp         fp,lr,[sp,#-0x30]!
  00004	a90157f4	 stp         x20,x21,[sp,#0x10]
  00008	f90013f6	 str         x22,[sp,#0x20]
  0000c	f90017fb	 str         x27,[sp,#0x28]
  00010	9101a360	 add         x0,x27,#0x68
  00014	94000000	 bl          |??1?$unique_ptr@V_Facet_base@std@@U?$default_delete@V_Facet_base@std@@@2@@std@@QEAA@XZ|
  00018	f94017fb	 ldr         x27,[sp,#0x28]
  0001c	f94013f6	 ldr         x22,[sp,#0x20]
  00020	a94157f4	 ldp         x20,x21,[sp,#0x10]
  00024	a8c37bfd	 ldp         fp,lr,[sp],#0x30
  00028	d65f03c0	 ret

			 ENDP  ; |??$use_facet@V?$ctype@D@std@@@std@@YAAEBV?$ctype@D@0@AEBVlocale@0@@Z|, std::use_facet<std::ctype<char> >

; Function compile flags: /Odtp /RTCsu /ZI

	AREA	|.text$mn|, CODE, ARM64

  00000		 |?__autoclassinit2@?$unique_ptr@V_Facet_base@std@@U?$default_delete@V_Facet_base@std@@@2@@std@@QEAAX_K@Z| PROC ; std::unique_ptr<std::_Facet_base,std::default_delete<std::_Facet_base> >::__autoclassinit2
  00000		 |$LN3|
  00000	a9bd7bfd	 stp         fp,lr,[sp,#-0x30]!
  00004	a90157f4	 stp         x20,x21,[sp,#0x10]
  00008	f90013f6	 str         x22,[sp,#0x20]
  0000c	f90017fb	 str         x27,[sp,#0x28]
  00010	910003fd	 mov         fp,sp
  00014	d103c3ff	 sub         sp,sp,#0xF0
  00018	910003fb	 mov         x27,sp
  0001c	b202e7f4	 movi        x20,#-0x3333333333333334
  00020	b202e7f5	 movi        x21,#-0x3333333333333334
  00024	a90057f4	 stp         x20,x21,[sp]
  00028	a90157f4	 stp         x20,x21,[sp,#0x10]
  0002c	a90257f4	 stp         x20,x21,[sp,#0x20]
  00030	f9000f60	 str         x0,[x27,#0x18]
  00034	f9000761	 str         x1,[x27,#8]
  00038	f9400762	 ldr         x2,[x27,#8]
  0003c	52800001	 mov         w1,#0
  00040	f9400f60	 ldr         x0,[x27,#0x18]
  00044	94000000	 bl          memset
  00048	910003bf	 mov         sp,fp
  0004c	f94017fb	 ldr         x27,[sp,#0x28]
  00050	f94013f6	 ldr         x22,[sp,#0x20]
  00054	a94157f4	 ldp         x20,x21,[sp,#0x10]
  00058	a8c37bfd	 ldp         fp,lr,[sp],#0x30
  0005c	d65f03c0	 ret

			 ENDP  ; |?__autoclassinit2@?$unique_ptr@V_Facet_base@std@@U?$default_delete@V_Facet_base@std@@@2@@std@@QEAAX_K@Z|, std::unique_ptr<std::_Facet_base,std::default_delete<std::_Facet_base> >::__autoclassinit2

; Function compile flags: /Odtp /RTCsu /ZI
; File C:\Program Files\Microsoft Visual Studio\2022\Community\VC\Tools\MSVC\14.34.31933\include\xmemory

	AREA	|.text$mn|, CODE, ARM64

  00000		 |?_Get_first@?$_Compressed_pair@U?$default_delete@V_Facet_base@std@@@std@@PEAV_Facet_base@2@$00@std@@QEAAAEAU?$default_delete@V_Facet_base@std@@@2@XZ| PROC ; std::_Compressed_pair<std::default_delete<std::_Facet_base>,std::_Facet_base *,1>::_Get_first

; 1383 :     constexpr _Ty1& _Get_first() noexcept {

  00000		 |$LN3|
  00000	a9bd7bfd	 stp         fp,lr,[sp,#-0x30]!
  00004	a90157f4	 stp         x20,x21,[sp,#0x10]
  00008	f90013f6	 str         x22,[sp,#0x20]
  0000c	f90017fb	 str         x27,[sp,#0x28]
  00010	910003fd	 mov         fp,sp
  00014	d10383ff	 sub         sp,sp,#0xE0
  00018	910003fb	 mov         x27,sp
  0001c	b202e7f4	 movi        x20,#-0x3333333333333334
  00020	b202e7f5	 movi        x21,#-0x3333333333333334
  00024	a90057f4	 stp         x20,x21,[sp]
  00028	a90157f4	 stp         x20,x21,[sp,#0x10]
  0002c	f9000760	 str         x0,[x27,#8]
  00030	90000008	 adrp        x8,__C3CE3678_xmemory
  00034	91000100	 add         x0,x8,__C3CE3678_xmemory
  00038	94000000	 bl          __CheckForDebuggerJustMyCode

; 1384 :         return *this;

  0003c	f9400760	 ldr         x0,[x27,#8]
  00040	910003bf	 mov         sp,fp
  00044	f94017fb	 ldr         x27,[sp,#0x28]
  00048	f94013f6	 ldr         x22,[sp,#0x20]
  0004c	a94157f4	 ldp         x20,x21,[sp,#0x10]
  00050	a8c37bfd	 ldp         fp,lr,[sp],#0x30
  00054	d65f03c0	 ret

			 ENDP  ; |?_Get_first@?$_Compressed_pair@U?$default_delete@V_Facet_base@std@@@std@@PEAV_Facet_base@2@$00@std@@QEAAAEAU?$default_delete@V_Facet_base@std@@@2@XZ|, std::_Compressed_pair<std::default_delete<std::_Facet_base>,std::_Facet_base *,1>::_Get_first

; Function compile flags: /Odtp /RTCsu /ZI
; File C:\Program Files\Microsoft Visual Studio\2022\Community\VC\Tools\MSVC\14.34.31933\include\memory

	AREA	|.text$mn|, CODE, ARM64

  00000		 |?release@?$unique_ptr@V_Facet_base@std@@U?$default_delete@V_Facet_base@std@@@2@@std@@QEAAPEAV_Facet_base@2@XZ| PROC ; std::unique_ptr<std::_Facet_base,std::default_delete<std::_Facet_base> >::release

; 3245 :     _CONSTEXPR23 pointer release() noexcept {

  00000		 |$LN3|
  00000	a9bd7bfd	 stp         fp,lr,[sp,#-0x30]!
  00004	a90157f4	 stp         x20,x21,[sp,#0x10]
  00008	f90013f6	 str         x22,[sp,#0x20]
  0000c	f90017fb	 str         x27,[sp,#0x28]
  00010	910003fd	 mov         fp,sp
  00014	d103c3ff	 sub         sp,sp,#0xF0
  00018	910003fb	 mov         x27,sp
  0001c	b202e7f4	 movi        x20,#-0x3333333333333334
  00020	b202e7f5	 movi        x21,#-0x3333333333333334
  00024	a90057f4	 stp         x20,x21,[sp]
  00028	a90157f4	 stp         x20,x21,[sp,#0x10]
  0002c	a90257f4	 stp         x20,x21,[sp,#0x20]
  00030	f9000760	 str         x0,[x27,#8]
  00034	90000008	 adrp        x8,__0F5D4878_memory
  00038	91000100	 add         x0,x8,__0F5D4878_memory
  0003c	94000000	 bl          __CheckForDebuggerJustMyCode

; 3246 :         return _STD exchange(_Mypair._Myval2, nullptr);

  00040	d2800008	 mov         x8,#0
  00044	f9006f68	 str         x8,[x27,#0xD8]
  00048	f9400760	 ldr         x0,[x27,#8]
  0004c	91036361	 add         x1,x27,#0xD8
  00050	94000000	 bl          |??$exchange@PEAV_Facet_base@std@@$$T@std@@YAPEAV_Facet_base@0@AEAPEAV10@$$QEA$$T@Z|
  00054	910003bf	 mov         sp,fp
  00058	f94017fb	 ldr         x27,[sp,#0x28]
  0005c	f94013f6	 ldr         x22,[sp,#0x20]
  00060	a94157f4	 ldp         x20,x21,[sp,#0x10]
  00064	a8c37bfd	 ldp         fp,lr,[sp],#0x30
  00068	d65f03c0	 ret

			 ENDP  ; |?release@?$unique_ptr@V_Facet_base@std@@U?$default_delete@V_Facet_base@std@@@2@@std@@QEAAPEAV_Facet_base@2@XZ|, std::unique_ptr<std::_Facet_base,std::default_delete<std::_Facet_base> >::release

; Function compile flags: /Odtp /RTCsu /ZI
; File C:\Program Files\Microsoft Visual Studio\2022\Community\VC\Tools\MSVC\14.34.31933\include\memory

	AREA	|.text$mn|, CODE, ARM64

  00000		 |??1?$unique_ptr@V_Facet_base@std@@U?$default_delete@V_Facet_base@std@@@2@@std@@QEAA@XZ| PROC ; std::unique_ptr<std::_Facet_base,std::default_delete<std::_Facet_base> >::~unique_ptr<std::_Facet_base,std::default_delete<std::_Facet_base> >

; 3215 :     _CONSTEXPR23 ~unique_ptr() noexcept {

  00000		 |$LN4|
  00000	a9bc7bfd	 stp         fp,lr,[sp,#-0x40]!
  00004	a90153f3	 stp         x19,x20,[sp,#0x10]
  00008	a9025bf5	 stp         x21,x22,[sp,#0x20]
  0000c	f9001bfb	 str         x27,[sp,#0x30]
  00010	910003fd	 mov         fp,sp
  00014	d10383ff	 sub         sp,sp,#0xE0
  00018	910003fb	 mov         x27,sp
  0001c	b202e7f4	 movi        x20,#-0x3333333333333334
  00020	b202e7f5	 movi        x21,#-0x3333333333333334
  00024	a90057f4	 stp         x20,x21,[sp]
  00028	a90157f4	 stp         x20,x21,[sp,#0x10]
  0002c	f9000760	 str         x0,[x27,#8]
  00030	90000008	 adrp        x8,__0F5D4878_memory
  00034	91000100	 add         x0,x8,__0F5D4878_memory
  00038	94000000	 bl          __CheckForDebuggerJustMyCode

; 3216 :         if (_Mypair._Myval2) {

  0003c	f9400768	 ldr         x8,[x27,#8]
  00040	f9400108	 ldr         x8,[x8]
  00044	f100011f	 cmp         x8,#0
  00048	54000000	 beq         |$LN2@unique_ptr|

; 3217 :             _Mypair._Get_first()(_Mypair._Myval2);

  0004c	f9400773	 ldr         x19,[x27,#8]
  00050	f9400760	 ldr         x0,[x27,#8]
  00054	94000000	 bl          |?_Get_first@?$_Compressed_pair@U?$default_delete@V_Facet_base@std@@@std@@PEAV_Facet_base@2@$00@std@@QEAAAEAU?$default_delete@V_Facet_base@std@@@2@XZ|
  00058	f9400261	 ldr         x1,[x19]
  0005c	94000000	 bl          |??R?$default_delete@V_Facet_base@std@@@std@@QEBAXPEAV_Facet_base@1@@Z|
  00060		 |$LN2@unique_ptr|
  00060	910003bf	 mov         sp,fp
  00064	f9401bfb	 ldr         x27,[sp,#0x30]
  00068	a9425bf5	 ldp         x21,x22,[sp,#0x20]
  0006c	a94153f3	 ldp         x19,x20,[sp,#0x10]
  00070	a8c47bfd	 ldp         fp,lr,[sp],#0x40
  00074	d65f03c0	 ret

			 ENDP  ; |??1?$unique_ptr@V_Facet_base@std@@U?$default_delete@V_Facet_base@std@@@2@@std@@QEAA@XZ|, std::unique_ptr<std::_Facet_base,std::default_delete<std::_Facet_base> >::~unique_ptr<std::_Facet_base,std::default_delete<std::_Facet_base> >

; Function compile flags: /Odtp /RTCsu /ZI
; File C:\Program Files\Microsoft Visual Studio\2022\Community\VC\Tools\MSVC\14.34.31933\include\memory

	AREA	|.text$mn|, CODE, ARM64

  00000		 |??R?$default_delete@V_Facet_base@std@@@std@@QEBAXPEAV_Facet_base@1@@Z| PROC ; std::default_delete<std::_Facet_base>::operator()

; 3104 :     _CONSTEXPR23 void operator()(_Ty* _Ptr) const noexcept /* strengthened */ { // delete a pointer

  00000		 |$LN5|
  00000	a9bd7bfd	 stp         fp,lr,[sp,#-0x30]!
  00004	a90157f4	 stp         x20,x21,[sp,#0x10]
  00008	f90013f6	 str         x22,[sp,#0x20]
  0000c	f90017fb	 str         x27,[sp,#0x28]
  00010	910003fd	 mov         fp,sp
  00014	d10403ff	 sub         sp,sp,#0x100
  00018	910003fb	 mov         x27,sp
  0001c	b202e7f4	 movi        x20,#-0x3333333333333334
  00020	b202e7f5	 movi        x21,#-0x3333333333333334
  00024	a90057f4	 stp         x20,x21,[sp]
  00028	a90157f4	 stp         x20,x21,[sp,#0x10]
  0002c	a90257f4	 stp         x20,x21,[sp,#0x20]
  00030	a90357f4	 stp         x20,x21,[sp,#0x30]
  00034	f9000f60	 str         x0,[x27,#0x18]
  00038	f9000761	 str         x1,[x27,#8]
  0003c	90000008	 adrp        x8,__0F5D4878_memory
  00040	91000100	 add         x0,x8,__0F5D4878_memory
  00044	94000000	 bl          __CheckForDebuggerJustMyCode

; 3105 :         static_assert(0 < sizeof(_Ty), "can't delete an incomplete type");
; 3106 :         delete _Ptr;

  00048	f9400768	 ldr         x8,[x27,#8]
  0004c	f9007768	 str         x8,[x27,#0xE8]
  00050	f9407768	 ldr         x8,[x27,#0xE8]
  00054	f100011f	 cmp         x8,#0
  00058	54000000	 beq         |$LN3@operator|
  0005c	f9407768	 ldr         x8,[x27,#0xE8]
  00060	f9400108	 ldr         x8,[x8]
  00064	52800021	 mov         w1,#1
  00068	f9407760	 ldr         x0,[x27,#0xE8]
  0006c	f9400108	 ldr         x8,[x8]
  00070	d63f0100	 blr         x8
  00074	f9007f60	 str         x0,[x27,#0xF8]
  00078	14000003	 b           |$LN4@operator|
  0007c		 |$LN3@operator|
  0007c	d2800008	 mov         x8,#0
  00080	f9007f68	 str         x8,[x27,#0xF8]
  00084		 |$LN4@operator|
  00084	910003bf	 mov         sp,fp
  00088	f94017fb	 ldr         x27,[sp,#0x28]
  0008c	f94013f6	 ldr         x22,[sp,#0x20]
  00090	a94157f4	 ldp         x20,x21,[sp,#0x10]
  00094	a8c37bfd	 ldp         fp,lr,[sp],#0x30
  00098	d65f03c0	 ret

			 ENDP  ; |??R?$default_delete@V_Facet_base@std@@@std@@QEBAXPEAV_Facet_base@1@@Z|, std::default_delete<std::_Facet_base>::operator()

; Function compile flags: /Odtp /RTCsu /ZI
; File C:\Program Files\Microsoft Visual Studio\2022\Community\VC\Tools\MSVC\14.34.31933\include\xlocale

	AREA	|.text$mn|, CODE, ARM64

  00000		 |?_Getfacet@locale@std@@QEBAPEBVfacet@12@_K@Z| PROC ; std::locale::_Getfacet

; 368  :     const facet* _Getfacet(size_t _Id) const { // look up a facet in locale object

  00000		 |$LN8|
  00000	a9bd7bfd	 stp         fp,lr,[sp,#-0x30]!
  00004	a90157f4	 stp         x20,x21,[sp,#0x10]
  00008	f90013f6	 str         x22,[sp,#0x20]
  0000c	f90017fb	 str         x27,[sp,#0x28]
  00010	910003fd	 mov         fp,sp
  00014	d10443ff	 sub         sp,sp,#0x110
  00018	910003fb	 mov         x27,sp
  0001c	aa0003f4	 mov         x20,x0
  00020	aa0103f5	 mov         x21,x1
  00024	aa0203f6	 mov         x22,x2
  00028	910003e0	 mov         x0,sp
  0002c	b202e7e1	 movi        x1,#-0x3333333333333334
  00030	d2800a02	 mov         x2,#0x50
  00034	94000000	 bl          __RTC_memset
  00038	aa1403e0	 mov         x0,x20
  0003c	aa1503e1	 mov         x1,x21
  00040	aa1603e2	 mov         x2,x22
  00044	f9000f60	 str         x0,[x27,#0x18]
  00048	f9000761	 str         x1,[x27,#8]
  0004c	90000008	 adrp        x8,__6823C4D5_xlocale
  00050	91000100	 add         x0,x8,__6823C4D5_xlocale
  00054	94000000	 bl          __CheckForDebuggerJustMyCode

; 369  :         const facet* _Facptr = _Id < _Ptr->_Facetcount ? _Ptr->_Facetvec[_Id] : nullptr; // null if id off end

  00058	f9400f68	 ldr         x8,[x27,#0x18]
  0005c	91002108	 add         x8,x8,#8
  00060	f9400108	 ldr         x8,[x8]
  00064	91006108	 add         x8,x8,#0x18
  00068	f9400109	 ldr         x9,[x8]
  0006c	f9400768	 ldr         x8,[x27,#8]
  00070	eb09011f	 cmp         x8,x9
  00074	54000002	 bhs         |$LN6@Getfacet|
  00078	f9400f68	 ldr         x8,[x27,#0x18]
  0007c	91002108	 add         x8,x8,#8
  00080	f9400108	 ldr         x8,[x8]
  00084	9100410a	 add         x10,x8,#0x10
  00088	f9400769	 ldr         x9,[x27,#8]
  0008c	d2800108	 mov         x8,#8
  00090	9b087d29	 mul         x9,x9,x8
  00094	f9400148	 ldr         x8,[x10]
  00098	8b090108	 add         x8,x8,x9
  0009c	f9400108	 ldr         x8,[x8]
  000a0	f9008768	 str         x8,[x27,#0x108]
  000a4	14000003	 b           |$LN7@Getfacet|
  000a8		 |$LN6@Getfacet|
  000a8	d2800008	 mov         x8,#0
  000ac	f9008768	 str         x8,[x27,#0x108]
  000b0		 |$LN7@Getfacet|
  000b0	f9408768	 ldr         x8,[x27,#0x108]
  000b4	f9001768	 str         x8,[x27,#0x28]

; 370  :         if (_Facptr || !_Ptr->_Xparent) {

  000b8	f9401768	 ldr         x8,[x27,#0x28]
  000bc	f100011f	 cmp         x8,#0
  000c0	54000001	 bne         |$LN3@Getfacet|
  000c4	f9400f68	 ldr         x8,[x27,#0x18]
  000c8	91002108	 add         x8,x8,#8
  000cc	f9400108	 ldr         x8,[x8]
  000d0	91009108	 add         x8,x8,#0x24
  000d4	39400108	 ldrb        w8,[x8]
  000d8	2a0803e8	 mov         w8,w8
  000dc	7100011f	 cmp         w8,#0
  000e0	54000001	 bne         |$LN2@Getfacet|
  000e4		 |$LN3@Getfacet|

; 371  :             return _Facptr; // found facet or not transparent

  000e4	f9401760	 ldr         x0,[x27,#0x28]
  000e8	14000013	 b           |$LN1@Getfacet|
  000ec		 |$LN2@Getfacet|

; 372  :         }
; 373  : 
; 374  :         // look in current locale
; 375  :         locale::_Locimp* _Ptr0 = _Getgloballocale();

  000ec	94000000	 bl          |?_Getgloballocale@locale@std@@CAPEAV_Locimp@12@XZ|
  000f0	f9001f60	 str         x0,[x27,#0x38]

; 376  :         if (_Id < _Ptr0->_Facetcount) {

  000f4	f9401f68	 ldr         x8,[x27,#0x38]
  000f8	91006108	 add         x8,x8,#0x18
  000fc	f9400109	 ldr         x9,[x8]
  00100	f9400768	 ldr         x8,[x27,#8]
  00104	eb09011f	 cmp         x8,x9
  00108	54000002	 bhs         |$LN4@Getfacet|

; 377  :             return _Ptr0->_Facetvec[_Id]; // get from current locale

  0010c	f9401f68	 ldr         x8,[x27,#0x38]
  00110	9100410a	 add         x10,x8,#0x10
  00114	f9400769	 ldr         x9,[x27,#8]
  00118	d2800108	 mov         x8,#8
  0011c	9b087d29	 mul         x9,x9,x8
  00120	f9400148	 ldr         x8,[x10]
  00124	8b090108	 add         x8,x8,x9
  00128	f9400100	 ldr         x0,[x8]
  0012c	14000002	 b           |$LN1@Getfacet|
  00130		 |$LN4@Getfacet|

; 378  :         }
; 379  : 
; 380  :         return nullptr; // no entry in current locale

  00130	d2800000	 mov         x0,#0
  00134		 |$LN1@Getfacet|
  00134	910003bf	 mov         sp,fp
  00138	f94017fb	 ldr         x27,[sp,#0x28]
  0013c	f94013f6	 ldr         x22,[sp,#0x20]
  00140	a94157f4	 ldp         x20,x21,[sp,#0x10]
  00144	a8c37bfd	 ldp         fp,lr,[sp],#0x30
  00148	d65f03c0	 ret

			 ENDP  ; |?_Getfacet@locale@std@@QEBAPEBVfacet@12@_K@Z|, std::locale::_Getfacet

; Function compile flags: /Odtp /RTCsu /ZI
; File C:\Program Files\Microsoft Visual Studio\2022\Community\VC\Tools\MSVC\14.34.31933\include\xlocale

	AREA	|.text$mn|, CODE, ARM64

  00000		 |??1locale@std@@QEAA@XZ| PROC		; std::locale::~locale

; 345  :     ~locale() noexcept {

  00000		 |$LN6|
  00000	a9bd7bfd	 stp         fp,lr,[sp,#-0x30]!
  00004	a90157f4	 stp         x20,x21,[sp,#0x10]
  00008	f90013f6	 str         x22,[sp,#0x20]
  0000c	f90017fb	 str         x27,[sp,#0x28]
  00010	910003fd	 mov         fp,sp
  00014	d103c3ff	 sub         sp,sp,#0xF0
  00018	910003fb	 mov         x27,sp
  0001c	b202e7f4	 movi        x20,#-0x3333333333333334
  00020	b202e7f5	 movi        x21,#-0x3333333333333334
  00024	a90057f4	 stp         x20,x21,[sp]
  00028	a90157f4	 stp         x20,x21,[sp,#0x10]
  0002c	a90257f4	 stp         x20,x21,[sp,#0x20]
  00030	f9000760	 str         x0,[x27,#8]
  00034	90000008	 adrp        x8,__6823C4D5_xlocale
  00038	91000100	 add         x0,x8,__6823C4D5_xlocale
  0003c	94000000	 bl          __CheckForDebuggerJustMyCode

; 346  :         if (_Ptr) {

  00040	f9400768	 ldr         x8,[x27,#8]
  00044	91002108	 add         x8,x8,#8
  00048	f9400108	 ldr         x8,[x8]
  0004c	f100011f	 cmp         x8,#0
  00050	54000000	 beq         |$LN2@locale|

; 347  :             delete _Ptr->_Decref();

  00054	f9400768	 ldr         x8,[x27,#8]
  00058	91002108	 add         x8,x8,#8
  0005c	f9400109	 ldr         x9,[x8]
  00060	f9400768	 ldr         x8,[x27,#8]
  00064	91002108	 add         x8,x8,#8
  00068	f9400100	 ldr         x0,[x8]
  0006c	f9400128	 ldr         x8,[x9]
  00070	91004108	 add         x8,x8,#0x10
  00074	f9400108	 ldr         x8,[x8]
  00078	d63f0100	 blr         x8
  0007c	f9006f60	 str         x0,[x27,#0xD8]
  00080	f9406f68	 ldr         x8,[x27,#0xD8]
  00084	f100011f	 cmp         x8,#0
  00088	54000000	 beq         |$LN4@locale|
  0008c	f9406f68	 ldr         x8,[x27,#0xD8]
  00090	f9400108	 ldr         x8,[x8]
  00094	52800021	 mov         w1,#1
  00098	f9406f60	 ldr         x0,[x27,#0xD8]
  0009c	f9400108	 ldr         x8,[x8]
  000a0	d63f0100	 blr         x8
  000a4	f9007760	 str         x0,[x27,#0xE8]
  000a8	14000003	 b           |$LN2@locale|
  000ac		 |$LN4@locale|
  000ac	d2800008	 mov         x8,#0
  000b0	f9007768	 str         x8,[x27,#0xE8]
  000b4		 |$LN2@locale|
  000b4	910003bf	 mov         sp,fp
  000b8	f94017fb	 ldr         x27,[sp,#0x28]
  000bc	f94013f6	 ldr         x22,[sp,#0x20]
  000c0	a94157f4	 ldp         x20,x21,[sp,#0x10]
  000c4	a8c37bfd	 ldp         fp,lr,[sp],#0x30
  000c8	d65f03c0	 ret

			 ENDP  ; |??1locale@std@@QEAA@XZ|, std::locale::~locale

; Function compile flags: /Odtp /RTCsu /ZI
; File C:\Program Files\Microsoft Visual Studio\2022\Community\VC\Tools\MSVC\14.34.31933\include\typeinfo

	AREA	|.text$mn|, CODE, ARM64

  00000		 |?_Throw_bad_cast@std@@YAXXZ| PROC	; std::_Throw_bad_cast

; 62   : [[noreturn]] inline void _Throw_bad_cast() {

  00000		 |$LN4|
  00000	a9bd7bfd	 stp         fp,lr,[sp,#-0x30]!
  00004	a90157f4	 stp         x20,x21,[sp,#0x10]
  00008	f90013f6	 str         x22,[sp,#0x20]
  0000c	f90017fb	 str         x27,[sp,#0x28]
  00010	910003fd	 mov         fp,sp
  00014	d103c3ff	 sub         sp,sp,#0xF0
  00018	910003fb	 mov         x27,sp
  0001c	b202e7f4	 movi        x20,#-0x3333333333333334
  00020	b202e7f5	 movi        x21,#-0x3333333333333334
  00024	a90057f4	 stp         x20,x21,[sp]
  00028	a90157f4	 stp         x20,x21,[sp,#0x10]
  0002c	a90257f4	 stp         x20,x21,[sp,#0x20]
  00030	90000008	 adrp        x8,__D94835DC_typeinfo
  00034	91000100	 add         x0,x8,__D94835DC_typeinfo
  00038	94000000	 bl          __CheckForDebuggerJustMyCode

; 63   :     _THROW(bad_cast{});

  0003c	91032360	 add         x0,x27,#0xC8
  00040	94000000	 bl          |??0bad_cast@std@@QEAA@XZ|
  00044	90000008	 adrp        x8,|_TI2?AVbad_cast@std@@|
  00048	91000101	 add         x1,x8,|_TI2?AVbad_cast@std@@|
  0004c	91032360	 add         x0,x27,#0xC8
  00050	94000000	 bl          _CxxThrowException
  00054		 |$LN2@Throw_bad_|
  00054	910003bf	 mov         sp,fp
  00058	f94017fb	 ldr         x27,[sp,#0x28]
  0005c	f94013f6	 ldr         x22,[sp,#0x20]
  00060	a94157f4	 ldp         x20,x21,[sp,#0x10]
  00064	a8c37bfd	 ldp         fp,lr,[sp],#0x30
  00068	d65f03c0	 ret
  0006c		 |$LN3@Throw_bad_|

			 ENDP  ; |?_Throw_bad_cast@std@@YAXXZ|, std::_Throw_bad_cast

; Function compile flags: /Odtp /RTCsu /ZI

	AREA	|.text$mn|, CODE, ARM64

  00000		 |??_Gbad_cast@std@@UEAAPEAXI@Z| PROC	; std::bad_cast::`scalar deleting destructor'
  00000		 |$LN4|
  00000	a9bd7bfd	 stp         fp,lr,[sp,#-0x30]!
  00004	a90157f4	 stp         x20,x21,[sp,#0x10]
  00008	f90013f6	 str         x22,[sp,#0x20]
  0000c	f90017fb	 str         x27,[sp,#0x28]
  00010	910003fd	 mov         fp,sp
  00014	d10383ff	 sub         sp,sp,#0xE0
  00018	910003fb	 mov         x27,sp
  0001c	b202e7f4	 movi        x20,#-0x3333333333333334
  00020	b202e7f5	 movi        x21,#-0x3333333333333334
  00024	a90057f4	 stp         x20,x21,[sp]
  00028	a90157f4	 stp         x20,x21,[sp,#0x10]
  0002c	f9000b60	 str         x0,[x27,#0x10]
  00030	b9000761	 str         w1,[x27,#4]
  00034	f9400b60	 ldr         x0,[x27,#0x10]
  00038	94000000	 bl          |??1bad_cast@std@@UEAA@XZ|
  0003c	b9400768	 ldr         w8,[x27,#4]
  00040	36000008	 tbz         x8,#0,|$LN2@scalar|
  00044	d2800301	 mov         x1,#0x18
  00048	f9400b60	 ldr         x0,[x27,#0x10]
  0004c	94000000	 bl          |??3@YAXPEAX_K@Z|
  00050		 |$LN2@scalar|
  00050	f9400b60	 ldr         x0,[x27,#0x10]
  00054	910003bf	 mov         sp,fp
  00058	f94017fb	 ldr         x27,[sp,#0x28]
  0005c	f94013f6	 ldr         x22,[sp,#0x20]
  00060	a94157f4	 ldp         x20,x21,[sp,#0x10]
  00064	a8c37bfd	 ldp         fp,lr,[sp],#0x30
  00068	d65f03c0	 ret

			 ENDP  ; |??_Gbad_cast@std@@UEAAPEAXI@Z|, std::bad_cast::`scalar deleting destructor'

; Function compile flags: /Odtp /RTCsu /ZI

	AREA	|.text$mn|, CODE, ARM64

  00000		 |??0bad_cast@std@@QEAA@AEBV01@@Z| PROC	; std::bad_cast::bad_cast
  00000		 |$LN3|
  00000	a9bd7bfd	 stp         fp,lr,[sp,#-0x30]!
  00004	a90157f4	 stp         x20,x21,[sp,#0x10]
  00008	f90013f6	 str         x22,[sp,#0x20]
  0000c	f90017fb	 str         x27,[sp,#0x28]
  00010	910003fd	 mov         fp,sp
  00014	d103c3ff	 sub         sp,sp,#0xF0
  00018	910003fb	 mov         x27,sp
  0001c	b202e7f4	 movi        x20,#-0x3333333333333334
  00020	b202e7f5	 movi        x21,#-0x3333333333333334
  00024	a90057f4	 stp         x20,x21,[sp]
  00028	a90157f4	 stp         x20,x21,[sp,#0x10]
  0002c	a90257f4	 stp         x20,x21,[sp,#0x20]
  00030	f9000f60	 str         x0,[x27,#0x18]
  00034	f9000761	 str         x1,[x27,#8]
  00038	f9400761	 ldr         x1,[x27,#8]
  0003c	f9400f60	 ldr         x0,[x27,#0x18]
  00040	94000000	 bl          |??0exception@std@@QEAA@AEBV01@@Z|
  00044	f9400f69	 ldr         x9,[x27,#0x18]
  00048	90000008	 adrp        x8,|??_7bad_cast@std@@6B@|
  0004c	91000108	 add         x8,x8,|??_7bad_cast@std@@6B@|
  00050	f9000128	 str         x8,[x9]
  00054	f9400f60	 ldr         x0,[x27,#0x18]
  00058	910003bf	 mov         sp,fp
  0005c	f94017fb	 ldr         x27,[sp,#0x28]
  00060	f94013f6	 ldr         x22,[sp,#0x20]
  00064	a94157f4	 ldp         x20,x21,[sp,#0x10]
  00068	a8c37bfd	 ldp         fp,lr,[sp],#0x30
  0006c	d65f03c0	 ret

			 ENDP  ; |??0bad_cast@std@@QEAA@AEBV01@@Z|, std::bad_cast::bad_cast

; Function compile flags: /Odtp /RTCsu /ZI

	AREA	|.text$mn|, CODE, ARM64

  00000		 |??1bad_cast@std@@UEAA@XZ| PROC	; std::bad_cast::~bad_cast
  00000		 |$LN3|
  00000	a9bd7bfd	 stp         fp,lr,[sp,#-0x30]!
  00004	a90157f4	 stp         x20,x21,[sp,#0x10]
  00008	f90013f6	 str         x22,[sp,#0x20]
  0000c	f90017fb	 str         x27,[sp,#0x28]
  00010	910003fd	 mov         fp,sp
  00014	d10383ff	 sub         sp,sp,#0xE0
  00018	910003fb	 mov         x27,sp
  0001c	b202e7f4	 movi        x20,#-0x3333333333333334
  00020	b202e7f5	 movi        x21,#-0x3333333333333334
  00024	a90057f4	 stp         x20,x21,[sp]
  00028	a90157f4	 stp         x20,x21,[sp,#0x10]
  0002c	f9000760	 str         x0,[x27,#8]
  00030	f9400760	 ldr         x0,[x27,#8]
  00034	94000000	 bl          |??1exception@std@@UEAA@XZ|
  00038	910003bf	 mov         sp,fp
  0003c	f94017fb	 ldr         x27,[sp,#0x28]
  00040	f94013f6	 ldr         x22,[sp,#0x20]
  00044	a94157f4	 ldp         x20,x21,[sp,#0x10]
  00048	a8c37bfd	 ldp         fp,lr,[sp],#0x30
  0004c	d65f03c0	 ret

			 ENDP  ; |??1bad_cast@std@@UEAA@XZ|, std::bad_cast::~bad_cast

; Function compile flags: /Odtp /RTCsu /ZI
; File C:\Program Files\Microsoft Visual Studio\2022\Community\VC\Tools\MSVC\14.34.31933\include\vcruntime_typeinfo.h

	AREA	|.text$mn|, CODE, ARM64

  00000		 |??0bad_cast@std@@QEAA@XZ| PROC	; std::bad_cast::bad_cast

; 153  :     {

  00000		 |$LN3|
  00000	a9bd7bfd	 stp         fp,lr,[sp,#-0x30]!
  00004	a90157f4	 stp         x20,x21,[sp,#0x10]
  00008	f90013f6	 str         x22,[sp,#0x20]
  0000c	f90017fb	 str         x27,[sp,#0x28]
  00010	910003fd	 mov         fp,sp
  00014	d10383ff	 sub         sp,sp,#0xE0
  00018	910003fb	 mov         x27,sp
  0001c	b202e7f4	 movi        x20,#-0x3333333333333334
  00020	b202e7f5	 movi        x21,#-0x3333333333333334
  00024	a90057f4	 stp         x20,x21,[sp]
  00028	a90157f4	 stp         x20,x21,[sp,#0x10]
  0002c	f9000760	 str         x0,[x27,#8]
  00030	90000008	 adrp        x8,|__FA9853E6_vcruntime_typeinfo@h|
  00034	91000100	 add         x0,x8,|__FA9853E6_vcruntime_typeinfo@h|
  00038	94000000	 bl          __CheckForDebuggerJustMyCode

; 152  :         : exception("bad cast", 1)

  0003c	52800022	 mov         w2,#1
  00040	90000008	 adrp        x8,|??_C@_08EPJLHIJG@bad?5cast@|
  00044	91000101	 add         x1,x8,|??_C@_08EPJLHIJG@bad?5cast@|
  00048	f9400760	 ldr         x0,[x27,#8]
  0004c	94000000	 bl          |??0exception@std@@QEAA@QEBDH@Z|

; 153  :     {

  00050	f9400769	 ldr         x9,[x27,#8]
  00054	90000008	 adrp        x8,|??_7bad_cast@std@@6B@|
  00058	91000108	 add         x8,x8,|??_7bad_cast@std@@6B@|
  0005c	f9000128	 str         x8,[x9]

; 154  :     }

  00060	f9400760	 ldr         x0,[x27,#8]
  00064	910003bf	 mov         sp,fp
  00068	f94017fb	 ldr         x27,[sp,#0x28]
  0006c	f94013f6	 ldr         x22,[sp,#0x20]
  00070	a94157f4	 ldp         x20,x21,[sp,#0x10]
  00074	a8c37bfd	 ldp         fp,lr,[sp],#0x30
  00078	d65f03c0	 ret

			 ENDP  ; |??0bad_cast@std@@QEAA@XZ|, std::bad_cast::bad_cast

; Function compile flags: /Odtp /RTCsu /ZI
; File C:\Program Files\Microsoft Visual Studio\2022\Community\VC\Tools\MSVC\14.34.31933\include\xstring

	AREA	|.text$mn|, CODE, ARM64

  00000		 |?eof@?$_Narrow_char_traits@DH@std@@SAHXZ| PROC ; std::_Narrow_char_traits<char,int>::eof

; 488  :     _NODISCARD static constexpr int_type eof() noexcept {

  00000		 |$LN3|
  00000	a9bd7bfd	 stp         fp,lr,[sp,#-0x30]!
  00004	a90157f4	 stp         x20,x21,[sp,#0x10]
  00008	f90013f6	 str         x22,[sp,#0x20]
  0000c	f90017fb	 str         x27,[sp,#0x28]
  00010	910003fd	 mov         fp,sp
  00014	d10303ff	 sub         sp,sp,#0xC0
  00018	910003fb	 mov         x27,sp
  0001c	90000008	 adrp        x8,__B71DB0E4_xstring
  00020	91000100	 add         x0,x8,__B71DB0E4_xstring
  00024	94000000	 bl          __CheckForDebuggerJustMyCode

; 489  :         return static_cast<int_type>(EOF);

  00028	12800000	 mov         w0,#-1
  0002c	910003bf	 mov         sp,fp
  00030	f94017fb	 ldr         x27,[sp,#0x28]
  00034	f94013f6	 ldr         x22,[sp,#0x20]
  00038	a94157f4	 ldp         x20,x21,[sp,#0x10]
  0003c	a8c37bfd	 ldp         fp,lr,[sp],#0x30
  00040	d65f03c0	 ret

			 ENDP  ; |?eof@?$_Narrow_char_traits@DH@std@@SAHXZ|, std::_Narrow_char_traits<char,int>::eof

; Function compile flags: /Odtp /RTCsu /ZI
; File C:\Program Files\Microsoft Visual Studio\2022\Community\VC\Tools\MSVC\14.34.31933\include\xstring

	AREA	|.text$mn|, CODE, ARM64

  00000		 |?eq_int_type@?$_Narrow_char_traits@DH@std@@SA_NAEBH0@Z| PROC ; std::_Narrow_char_traits<char,int>::eq_int_type

; 480  :     _NODISCARD static constexpr bool eq_int_type(const int_type& _Left, const int_type& _Right) noexcept {

  00000		 |$LN5|
  00000	a9bd7bfd	 stp         fp,lr,[sp,#-0x30]!
  00004	a90157f4	 stp         x20,x21,[sp,#0x10]
  00008	f90013f6	 str         x22,[sp,#0x20]
  0000c	f90017fb	 str         x27,[sp,#0x28]
  00010	910003fd	 mov         fp,sp
  00014	d103c3ff	 sub         sp,sp,#0xF0
  00018	910003fb	 mov         x27,sp
  0001c	b202e7f4	 movi        x20,#-0x3333333333333334
  00020	b202e7f5	 movi        x21,#-0x3333333333333334
  00024	a90057f4	 stp         x20,x21,[sp]
  00028	a90157f4	 stp         x20,x21,[sp,#0x10]
  0002c	a90257f4	 stp         x20,x21,[sp,#0x20]
  00030	f9000760	 str         x0,[x27,#8]
  00034	f9000f61	 str         x1,[x27,#0x18]
  00038	90000008	 adrp        x8,__B71DB0E4_xstring
  0003c	91000100	 add         x0,x8,__B71DB0E4_xstring
  00040	94000000	 bl          __CheckForDebuggerJustMyCode

; 481  :         return _Left == _Right;

  00044	f9400f68	 ldr         x8,[x27,#0x18]
  00048	b9400109	 ldr         w9,[x8]
  0004c	f9400768	 ldr         x8,[x27,#8]
  00050	b9400108	 ldr         w8,[x8]
  00054	6b09011f	 cmp         w8,w9
  00058	54000001	 bne         |$LN3@eq_int_typ|
  0005c	52800028	 mov         w8,#1
  00060	b900e768	 str         w8,[x27,#0xE4]
  00064	14000003	 b           |$LN4@eq_int_typ|
  00068		 |$LN3@eq_int_typ|
  00068	52800008	 mov         w8,#0
  0006c	b900e768	 str         w8,[x27,#0xE4]
  00070		 |$LN4@eq_int_typ|
  00070	b940e768	 ldr         w8,[x27,#0xE4]
  00074	53001d00	 uxtb        w0,w8
  00078	2a0003e0	 mov         w0,w0
  0007c	910003bf	 mov         sp,fp
  00080	f94017fb	 ldr         x27,[sp,#0x28]
  00084	f94013f6	 ldr         x22,[sp,#0x20]
  00088	a94157f4	 ldp         x20,x21,[sp,#0x10]
  0008c	a8c37bfd	 ldp         fp,lr,[sp],#0x30
  00090	d65f03c0	 ret

			 ENDP  ; |?eq_int_type@?$_Narrow_char_traits@DH@std@@SA_NAEBH0@Z|, std::_Narrow_char_traits<char,int>::eq_int_type

; Function compile flags: /Odtp /RTCsu /ZI
; File C:\Program Files\Microsoft Visual Studio\2022\Community\VC\Tools\MSVC\14.34.31933\include\xstring

	AREA	|.text$mn|, CODE, ARM64

  00000		 |?to_char_type@?$_Narrow_char_traits@DH@std@@SADAEBH@Z| PROC ; std::_Narrow_char_traits<char,int>::to_char_type

; 472  :     _NODISCARD static constexpr _Elem to_char_type(const int_type& _Meta) noexcept {

  00000		 |$LN3|
  00000	a9bd7bfd	 stp         fp,lr,[sp,#-0x30]!
  00004	a90157f4	 stp         x20,x21,[sp,#0x10]
  00008	f90013f6	 str         x22,[sp,#0x20]
  0000c	f90017fb	 str         x27,[sp,#0x28]
  00010	910003fd	 mov         fp,sp
  00014	d10383ff	 sub         sp,sp,#0xE0
  00018	910003fb	 mov         x27,sp
  0001c	b202e7f4	 movi        x20,#-0x3333333333333334
  00020	b202e7f5	 movi        x21,#-0x3333333333333334
  00024	a90057f4	 stp         x20,x21,[sp]
  00028	a90157f4	 stp         x20,x21,[sp,#0x10]
  0002c	f9000760	 str         x0,[x27,#8]
  00030	90000008	 adrp        x8,__B71DB0E4_xstring
  00034	91000100	 add         x0,x8,__B71DB0E4_xstring
  00038	94000000	 bl          __CheckForDebuggerJustMyCode

; 473  :         return static_cast<_Elem>(_Meta);

  0003c	f9400768	 ldr         x8,[x27,#8]
  00040	b9400108	 ldr         w8,[x8]
  00044	13001d00	 sxtb        w0,w8
  00048	2a0003e0	 mov         w0,w0
  0004c	910003bf	 mov         sp,fp
  00050	f94017fb	 ldr         x27,[sp,#0x28]
  00054	f94013f6	 ldr         x22,[sp,#0x20]
  00058	a94157f4	 ldp         x20,x21,[sp,#0x10]
  0005c	a8c37bfd	 ldp         fp,lr,[sp],#0x30
  00060	d65f03c0	 ret

			 ENDP  ; |?to_char_type@?$_Narrow_char_traits@DH@std@@SADAEBH@Z|, std::_Narrow_char_traits<char,int>::to_char_type

; Function compile flags: /Odtp /RTCsu /ZI
; File C:\Program Files\Microsoft Visual Studio\2022\Community\VC\Tools\MSVC\14.34.31933\include\xstring

	AREA	|.text$mn|, CODE, ARM64

  00000		 |?length@?$_Narrow_char_traits@DH@std@@SA_KQEBD@Z| PROC ; std::_Narrow_char_traits<char,int>::length

; 402  :     _NODISCARD static _CONSTEXPR17 size_t length(_In_z_ const _Elem* const _First) noexcept /* strengthened */ {

  00000		 |$LN3|
  00000	a9bd7bfd	 stp         fp,lr,[sp,#-0x30]!
  00004	a90157f4	 stp         x20,x21,[sp,#0x10]
  00008	f90013f6	 str         x22,[sp,#0x20]
  0000c	f90017fb	 str         x27,[sp,#0x28]
  00010	910003fd	 mov         fp,sp
  00014	d10383ff	 sub         sp,sp,#0xE0
  00018	910003fb	 mov         x27,sp
  0001c	b202e7f4	 movi        x20,#-0x3333333333333334
  00020	b202e7f5	 movi        x21,#-0x3333333333333334
  00024	a90057f4	 stp         x20,x21,[sp]
  00028	a90157f4	 stp         x20,x21,[sp,#0x10]
  0002c	f9000760	 str         x0,[x27,#8]
  00030	90000008	 adrp        x8,__B71DB0E4_xstring
  00034	91000100	 add         x0,x8,__B71DB0E4_xstring
  00038	94000000	 bl          __CheckForDebuggerJustMyCode

; 403  :         // find length of null-terminated string
; 404  : #if _HAS_CXX17
; 405  : #ifdef __cpp_char8_t
; 406  :         if constexpr (is_same_v<_Elem, char8_t>) {
; 407  : #if _HAS_U8_INTRINSICS
; 408  :             return __builtin_u8strlen(_First);
; 409  : #else // ^^^ use u8 intrinsics / no u8 intrinsics vvv
; 410  :             return _Primary_char_traits::length(_First);
; 411  : #endif // _HAS_U8_INTRINSICS
; 412  :         } else
; 413  : #endif // __cpp_char8_t
; 414  :         {
; 415  :             return __builtin_strlen(_First);
; 416  :         }
; 417  : #else // _HAS_CXX17
; 418  :         return _CSTD strlen(reinterpret_cast<const char*>(_First));

  0003c	f9400760	 ldr         x0,[x27,#8]
  00040	94000000	 bl          strlen
  00044	910003bf	 mov         sp,fp
  00048	f94017fb	 ldr         x27,[sp,#0x28]
  0004c	f94013f6	 ldr         x22,[sp,#0x20]
  00050	a94157f4	 ldp         x20,x21,[sp,#0x10]
  00054	a8c37bfd	 ldp         fp,lr,[sp],#0x30
  00058	d65f03c0	 ret

			 ENDP  ; |?length@?$_Narrow_char_traits@DH@std@@SA_KQEBD@Z|, std::_Narrow_char_traits<char,int>::length

; Function compile flags: /Odtp /RTCsu /ZI

	AREA	|.text$mn|, CODE, ARM64

  00000		 |??_Gexception@std@@UEAAPEAXI@Z| PROC	; std::exception::`scalar deleting destructor'
  00000		 |$LN4|
  00000	a9bd7bfd	 stp         fp,lr,[sp,#-0x30]!
  00004	a90157f4	 stp         x20,x21,[sp,#0x10]
  00008	f90013f6	 str         x22,[sp,#0x20]
  0000c	f90017fb	 str         x27,[sp,#0x28]
  00010	910003fd	 mov         fp,sp
  00014	d10383ff	 sub         sp,sp,#0xE0
  00018	910003fb	 mov         x27,sp
  0001c	b202e7f4	 movi        x20,#-0x3333333333333334
  00020	b202e7f5	 movi        x21,#-0x3333333333333334
  00024	a90057f4	 stp         x20,x21,[sp]
  00028	a90157f4	 stp         x20,x21,[sp,#0x10]
  0002c	f9000b60	 str         x0,[x27,#0x10]
  00030	b9000761	 str         w1,[x27,#4]
  00034	f9400b60	 ldr         x0,[x27,#0x10]
  00038	94000000	 bl          |??1exception@std@@UEAA@XZ|
  0003c	b9400768	 ldr         w8,[x27,#4]
  00040	36000008	 tbz         x8,#0,|$LN2@scalar|
  00044	d2800301	 mov         x1,#0x18
  00048	f9400b60	 ldr         x0,[x27,#0x10]
  0004c	94000000	 bl          |??3@YAXPEAX_K@Z|
  00050		 |$LN2@scalar|
  00050	f9400b60	 ldr         x0,[x27,#0x10]
  00054	910003bf	 mov         sp,fp
  00058	f94017fb	 ldr         x27,[sp,#0x28]
  0005c	f94013f6	 ldr         x22,[sp,#0x20]
  00060	a94157f4	 ldp         x20,x21,[sp,#0x10]
  00064	a8c37bfd	 ldp         fp,lr,[sp],#0x30
  00068	d65f03c0	 ret

			 ENDP  ; |??_Gexception@std@@UEAAPEAXI@Z|, std::exception::`scalar deleting destructor'

; Function compile flags: /Odtp /RTCsu /ZI
; File C:\Program Files\Microsoft Visual Studio\2022\Community\VC\Tools\MSVC\14.34.31933\include\vcruntime_exception.h

	AREA	|.text$mn|, CODE, ARM64

  00000		 |?what@exception@std@@UEBAPEBDXZ| PROC	; std::exception::what

; 94   :     {

  00000		 |$LN5|
  00000	a9bd7bfd	 stp         fp,lr,[sp,#-0x30]!
  00004	a90157f4	 stp         x20,x21,[sp,#0x10]
  00008	f90013f6	 str         x22,[sp,#0x20]
  0000c	f90017fb	 str         x27,[sp,#0x28]
  00010	910003fd	 mov         fp,sp
  00014	d10383ff	 sub         sp,sp,#0xE0
  00018	910003fb	 mov         x27,sp
  0001c	b202e7f4	 movi        x20,#-0x3333333333333334
  00020	b202e7f5	 movi        x21,#-0x3333333333333334
  00024	a90057f4	 stp         x20,x21,[sp]
  00028	a90157f4	 stp         x20,x21,[sp,#0x10]
  0002c	f9000760	 str         x0,[x27,#8]
  00030	90000008	 adrp        x8,|__1BEF3287_vcruntime_exception@h|
  00034	91000100	 add         x0,x8,|__1BEF3287_vcruntime_exception@h|
  00038	94000000	 bl          __CheckForDebuggerJustMyCode

; 95   :         return _Data._What ? _Data._What : "Unknown exception";

  0003c	f9400768	 ldr         x8,[x27,#8]
  00040	91002108	 add         x8,x8,#8
  00044	f9400108	 ldr         x8,[x8]
  00048	f100011f	 cmp         x8,#0
  0004c	54000000	 beq         |$LN3@what|
  00050	f9400768	 ldr         x8,[x27,#8]
  00054	91002108	 add         x8,x8,#8
  00058	f9400108	 ldr         x8,[x8]
  0005c	f9006f68	 str         x8,[x27,#0xD8]
  00060	14000004	 b           |$LN4@what|
  00064		 |$LN3@what|
  00064	90000008	 adrp        x8,|??_C@_0BC@EOODALEL@Unknown?5exception@|
  00068	91000108	 add         x8,x8,|??_C@_0BC@EOODALEL@Unknown?5exception@|
  0006c	f9006f68	 str         x8,[x27,#0xD8]
  00070		 |$LN4@what|
  00070	f9406f60	 ldr         x0,[x27,#0xD8]
  00074	910003bf	 mov         sp,fp
  00078	f94017fb	 ldr         x27,[sp,#0x28]
  0007c	f94013f6	 ldr         x22,[sp,#0x20]
  00080	a94157f4	 ldp         x20,x21,[sp,#0x10]
  00084	a8c37bfd	 ldp         fp,lr,[sp],#0x30
  00088	d65f03c0	 ret

			 ENDP  ; |?what@exception@std@@UEBAPEBDXZ|, std::exception::what

; Function compile flags: /Odtp /RTCsu /ZI
; File C:\Program Files\Microsoft Visual Studio\2022\Community\VC\Tools\MSVC\14.34.31933\include\vcruntime_exception.h

	AREA	|.text$mn|, CODE, ARM64

  00000		 |??1exception@std@@UEAA@XZ| PROC	; std::exception::~exception

; 89   :     {

  00000		 |$LN3|
  00000	a9bd7bfd	 stp         fp,lr,[sp,#-0x30]!
  00004	a90157f4	 stp         x20,x21,[sp,#0x10]
  00008	f90013f6	 str         x22,[sp,#0x20]
  0000c	f90017fb	 str         x27,[sp,#0x28]
  00010	910003fd	 mov         fp,sp
  00014	d10383ff	 sub         sp,sp,#0xE0
  00018	910003fb	 mov         x27,sp
  0001c	b202e7f4	 movi        x20,#-0x3333333333333334
  00020	b202e7f5	 movi        x21,#-0x3333333333333334
  00024	a90057f4	 stp         x20,x21,[sp]
  00028	a90157f4	 stp         x20,x21,[sp,#0x10]
  0002c	f9000760	 str         x0,[x27,#8]
  00030	90000008	 adrp        x8,|__1BEF3287_vcruntime_exception@h|
  00034	91000100	 add         x0,x8,|__1BEF3287_vcruntime_exception@h|
  00038	94000000	 bl          __CheckForDebuggerJustMyCode
  0003c	f9400769	 ldr         x9,[x27,#8]
  00040	90000008	 adrp        x8,|??_7exception@std@@6B@|
  00044	91000108	 add         x8,x8,|??_7exception@std@@6B@|
  00048	f9000128	 str         x8,[x9]

; 90   :         __std_exception_destroy(&_Data);

  0004c	f9400768	 ldr         x8,[x27,#8]
  00050	91002100	 add         x0,x8,#8
  00054	94000000	 bl          __std_exception_destroy
  00058	910003bf	 mov         sp,fp
  0005c	f94017fb	 ldr         x27,[sp,#0x28]
  00060	f94013f6	 ldr         x22,[sp,#0x20]
  00064	a94157f4	 ldp         x20,x21,[sp,#0x10]
  00068	a8c37bfd	 ldp         fp,lr,[sp],#0x30
  0006c	d65f03c0	 ret

			 ENDP  ; |??1exception@std@@UEAA@XZ|, std::exception::~exception

; Function compile flags: /Odtp /RTCsu /ZI
; File C:\Program Files\Microsoft Visual Studio\2022\Community\VC\Tools\MSVC\14.34.31933\include\vcruntime_exception.h

	AREA	|.text$mn|, CODE, ARM64

  00000		 |??0exception@std@@QEAA@AEBV01@@Z| PROC ; std::exception::exception

; 72   :     {

  00000		 |$LN3|
  00000	a9bd7bfd	 stp         fp,lr,[sp,#-0x30]!
  00004	a90157f4	 stp         x20,x21,[sp,#0x10]
  00008	f90013f6	 str         x22,[sp,#0x20]
  0000c	f90017fb	 str         x27,[sp,#0x28]
  00010	910003fd	 mov         fp,sp
  00014	d103c3ff	 sub         sp,sp,#0xF0
  00018	910003fb	 mov         x27,sp
  0001c	b202e7f4	 movi        x20,#-0x3333333333333334
  00020	b202e7f5	 movi        x21,#-0x3333333333333334
  00024	a90057f4	 stp         x20,x21,[sp]
  00028	a90157f4	 stp         x20,x21,[sp,#0x10]
  0002c	a90257f4	 stp         x20,x21,[sp,#0x20]
  00030	f9000f60	 str         x0,[x27,#0x18]
  00034	f9000761	 str         x1,[x27,#8]
  00038	90000008	 adrp        x8,|__1BEF3287_vcruntime_exception@h|
  0003c	91000100	 add         x0,x8,|__1BEF3287_vcruntime_exception@h|
  00040	94000000	 bl          __CheckForDebuggerJustMyCode
  00044	f9400f69	 ldr         x9,[x27,#0x18]
  00048	90000008	 adrp        x8,|??_7exception@std@@6B@|
  0004c	91000108	 add         x8,x8,|??_7exception@std@@6B@|
  00050	f9000128	 str         x8,[x9]

; 71   :         : _Data()

  00054	f9400f68	 ldr         x8,[x27,#0x18]
  00058	91002108	 add         x8,x8,#8
  0005c	4f00e410	 movi        v16.16b,#0
  00060	3d800110	 str         q16,[x8]

; 73   :         __std_exception_copy(&_Other._Data, &_Data);

  00064	f9400f68	 ldr         x8,[x27,#0x18]
  00068	91002101	 add         x1,x8,#8
  0006c	f9400768	 ldr         x8,[x27,#8]
  00070	91002100	 add         x0,x8,#8
  00074	94000000	 bl          __std_exception_copy

; 74   :     }

  00078	f9400f60	 ldr         x0,[x27,#0x18]
  0007c	910003bf	 mov         sp,fp
  00080	f94017fb	 ldr         x27,[sp,#0x28]
  00084	f94013f6	 ldr         x22,[sp,#0x20]
  00088	a94157f4	 ldp         x20,x21,[sp,#0x10]
  0008c	a8c37bfd	 ldp         fp,lr,[sp],#0x30
  00090	d65f03c0	 ret

			 ENDP  ; |??0exception@std@@QEAA@AEBV01@@Z|, std::exception::exception

; Function compile flags: /Odtp /RTCsu /ZI
; File C:\Program Files\Microsoft Visual Studio\2022\Community\VC\Tools\MSVC\14.34.31933\include\vcruntime_exception.h

	AREA	|.text$mn|, CODE, ARM64

  00000		 |??0exception@std@@QEAA@QEBDH@Z| PROC	; std::exception::exception

; 66   :     {

  00000		 |$LN3|
  00000	a9bd7bfd	 stp         fp,lr,[sp,#-0x30]!
  00004	a90157f4	 stp         x20,x21,[sp,#0x10]
  00008	f90013f6	 str         x22,[sp,#0x20]
  0000c	f90017fb	 str         x27,[sp,#0x28]
  00010	910003fd	 mov         fp,sp
  00014	d10403ff	 sub         sp,sp,#0x100
  00018	910003fb	 mov         x27,sp
  0001c	b202e7f4	 movi        x20,#-0x3333333333333334
  00020	b202e7f5	 movi        x21,#-0x3333333333333334
  00024	a90057f4	 stp         x20,x21,[sp]
  00028	a90157f4	 stp         x20,x21,[sp,#0x10]
  0002c	a90257f4	 stp         x20,x21,[sp,#0x20]
  00030	a90357f4	 stp         x20,x21,[sp,#0x30]
  00034	f9001760	 str         x0,[x27,#0x28]
  00038	f9000761	 str         x1,[x27,#8]
  0003c	b9001b62	 str         w2,[x27,#0x18]
  00040	90000008	 adrp        x8,|__1BEF3287_vcruntime_exception@h|
  00044	91000100	 add         x0,x8,|__1BEF3287_vcruntime_exception@h|
  00048	94000000	 bl          __CheckForDebuggerJustMyCode
  0004c	f9401769	 ldr         x9,[x27,#0x28]
  00050	90000008	 adrp        x8,|??_7exception@std@@6B@|
  00054	91000108	 add         x8,x8,|??_7exception@std@@6B@|
  00058	f9000128	 str         x8,[x9]

; 65   :         : _Data()

  0005c	f9401768	 ldr         x8,[x27,#0x28]
  00060	91002108	 add         x8,x8,#8
  00064	4f00e410	 movi        v16.16b,#0
  00068	3d800110	 str         q16,[x8]

; 67   :         _Data._What = _Message;

  0006c	f9401768	 ldr         x8,[x27,#0x28]
  00070	91002109	 add         x9,x8,#8
  00074	f9400768	 ldr         x8,[x27,#8]
  00078	f9000128	 str         x8,[x9]

; 68   :     }

  0007c	f9401760	 ldr         x0,[x27,#0x28]
  00080	910003bf	 mov         sp,fp
  00084	f94017fb	 ldr         x27,[sp,#0x28]
  00088	f94013f6	 ldr         x22,[sp,#0x20]
  0008c	a94157f4	 ldp         x20,x21,[sp,#0x10]
  00090	a8c37bfd	 ldp         fp,lr,[sp],#0x30
  00094	d65f03c0	 ret

			 ENDP  ; |??0exception@std@@QEAA@QEBDH@Z|, std::exception::exception

; Function compile flags: /Odtp /RTCsu /ZI
; File C:\Program Files (x86)\Windows Kits\10\Include\10.0.22621.0\ucrt\stdio.h

	AREA	|.text$mn|, CODE, ARM64

  00000		 |sscanf_s| PROC

; 2286 :         {

  00000		 |$LN3|
  00000	a9ba7bfd	 stp         fp,lr,[sp,#-0x60]!
  00004	a90157f4	 stp         x20,x21,[sp,#0x10]
  00008	f90013f6	 str         x22,[sp,#0x20]
  0000c	f90017fb	 str         x27,[sp,#0x28]
  00010	a9030fe2	 stp         x2,x3,[sp,#0x30]
  00014	a90417e4	 stp         x4,x5,[sp,#0x40]
  00018	a9051fe6	 stp         x6,x7,[sp,#0x50]
  0001c	910003fd	 mov         fp,sp
  00020	94000000	 bl          __security_push_cookie
  00024	d10483ff	 sub         sp,sp,#0x120
  00028	910003fb	 mov         x27,sp
  0002c	aa0003f4	 mov         x20,x0
  00030	aa0103f5	 mov         x21,x1
  00034	aa0203f6	 mov         x22,x2
  00038	910003e0	 mov         x0,sp
  0003c	b202e7e1	 movi        x1,#-0x3333333333333334
  00040	d2800c02	 mov         x2,#0x60
  00044	94000000	 bl          __RTC_memset
  00048	aa1403e0	 mov         x0,x20
  0004c	aa1503e1	 mov         x1,x21
  00050	aa1603e2	 mov         x2,x22
  00054	f9000760	 str         x0,[x27,#8]
  00058	f9000f61	 str         x1,[x27,#0x18]
  0005c	90000008	 adrp        x8,|__C1EC35D3_stdio@h|
  00060	91000100	 add         x0,x8,|__C1EC35D3_stdio@h|
  00064	94000000	 bl          __CheckForDebuggerJustMyCode

; 2287 :             int _Result;
; 2288 :             va_list _ArgList;
; 2289 :             __crt_va_start(_ArgList, _Format);

  00068	91058368	 add         x8,x27,#0x160
  0006c	f9001f68	 str         x8,[x27,#0x38]

; 2290 : 
; 2291 :             _Result = vsscanf_s(_Buffer, _Format, _ArgList);

  00070	f9401f62	 ldr         x2,[x27,#0x38]
  00074	f9400f61	 ldr         x1,[x27,#0x18]
  00078	f9400760	 ldr         x0,[x27,#8]
  0007c	94000000	 bl          vsscanf_s
  00080	2a0003e0	 mov         w0,w0
  00084	b9002b60	 str         w0,[x27,#0x28]

; 2292 : 
; 2293 :             __crt_va_end(_ArgList);

  00088	d2800008	 mov         x8,#0
  0008c	f9001f68	 str         x8,[x27,#0x38]

; 2294 :             return _Result;

  00090	b9402b60	 ldr         w0,[x27,#0x28]
  00094	aa0003f4	 mov         x20,x0
  00098	aa0103f5	 mov         x21,x1
  0009c	aa1b03e0	 mov         x0,x27
  000a0	90000008	 adrp        x8,|sscanf_s$rtcFrameData|
  000a4	91000101	 add         x1,x8,|sscanf_s$rtcFrameData|
  000a8	94000000	 bl          _RTC_CheckStackVars
  000ac	aa1403e0	 mov         x0,x20
  000b0	aa1503e1	 mov         x1,x21
  000b4	910483ff	 add         sp,sp,#0x120
  000b8	94000000	 bl          __security_pop_cookie
  000bc	f94017fb	 ldr         x27,[sp,#0x28]
  000c0	f94013f6	 ldr         x22,[sp,#0x20]
  000c4	a94157f4	 ldp         x20,x21,[sp,#0x10]
  000c8	a8c67bfd	 ldp         fp,lr,[sp],#0x60
  000cc	d65f03c0	 ret

			 ENDP  ; |sscanf_s|

; Function compile flags: /Odtp /RTCsu /ZI
; File C:\Program Files (x86)\Windows Kits\10\Include\10.0.22621.0\ucrt\stdio.h

	AREA	|.text$mn|, CODE, ARM64

  00000		 |vsscanf_s| PROC

; 2204 :         {

  00000		 |$LN3|
  00000	a9bd7bfd	 stp         fp,lr,[sp,#-0x30]!
  00004	a90157f4	 stp         x20,x21,[sp,#0x10]
  00008	f90013f6	 str         x22,[sp,#0x20]
  0000c	f90017fb	 str         x27,[sp,#0x28]
  00010	910003fd	 mov         fp,sp
  00014	d10403ff	 sub         sp,sp,#0x100
  00018	910003fb	 mov         x27,sp
  0001c	b202e7f4	 movi        x20,#-0x3333333333333334
  00020	b202e7f5	 movi        x21,#-0x3333333333333334
  00024	a90057f4	 stp         x20,x21,[sp]
  00028	a90157f4	 stp         x20,x21,[sp,#0x10]
  0002c	a90257f4	 stp         x20,x21,[sp,#0x20]
  00030	a90357f4	 stp         x20,x21,[sp,#0x30]
  00034	f9000760	 str         x0,[x27,#8]
  00038	f9000f61	 str         x1,[x27,#0x18]
  0003c	f9001762	 str         x2,[x27,#0x28]
  00040	90000008	 adrp        x8,|__C1EC35D3_stdio@h|
  00044	91000100	 add         x0,x8,|__C1EC35D3_stdio@h|
  00048	94000000	 bl          __CheckForDebuggerJustMyCode

; 2205 :             return _vsscanf_s_l(_Buffer, _Format, NULL, _ArgList);

  0004c	f9401763	 ldr         x3,[x27,#0x28]
  00050	d2800002	 mov         x2,#0
  00054	f9400f61	 ldr         x1,[x27,#0x18]
  00058	f9400760	 ldr         x0,[x27,#8]
  0005c	94000000	 bl          _vsscanf_s_l
  00060	2a0003e0	 mov         w0,w0
  00064	2a0003e0	 mov         w0,w0
  00068	910003bf	 mov         sp,fp
  0006c	f94017fb	 ldr         x27,[sp,#0x28]
  00070	f94013f6	 ldr         x22,[sp,#0x20]
  00074	a94157f4	 ldp         x20,x21,[sp,#0x10]
  00078	a8c37bfd	 ldp         fp,lr,[sp],#0x30
  0007c	d65f03c0	 ret

			 ENDP  ; |vsscanf_s|

; Function compile flags: /Odtp /RTCsu /ZI
; File C:\Program Files (x86)\Windows Kits\10\Include\10.0.22621.0\ucrt\stdio.h

	AREA	|.text$mn|, CODE, ARM64

  00000		 |_vsscanf_s_l| PROC

; 2183 :     {

  00000		 |$LN3|
  00000	a9bd7bfd	 stp         fp,lr,[sp,#-0x30]!
  00004	a90157f4	 stp         x20,x21,[sp,#0x10]
  00008	f90013f6	 str         x22,[sp,#0x20]
  0000c	f90017fb	 str         x27,[sp,#0x28]
  00010	910003fd	 mov         fp,sp
  00014	d10443ff	 sub         sp,sp,#0x110
  00018	910003fb	 mov         x27,sp
  0001c	aa0003f4	 mov         x20,x0
  00020	aa0103f5	 mov         x21,x1
  00024	aa0203f6	 mov         x22,x2
  00028	910003e0	 mov         x0,sp
  0002c	b202e7e1	 movi        x1,#-0x3333333333333334
  00030	d2800a02	 mov         x2,#0x50
  00034	94000000	 bl          __RTC_memset
  00038	aa1403e0	 mov         x0,x20
  0003c	aa1503e1	 mov         x1,x21
  00040	aa1603e2	 mov         x2,x22
  00044	f9000760	 str         x0,[x27,#8]
  00048	f9000f61	 str         x1,[x27,#0x18]
  0004c	f9001762	 str         x2,[x27,#0x28]
  00050	f9001f63	 str         x3,[x27,#0x38]
  00054	90000008	 adrp        x8,|__C1EC35D3_stdio@h|
  00058	91000100	 add         x0,x8,|__C1EC35D3_stdio@h|
  0005c	94000000	 bl          __CheckForDebuggerJustMyCode

; 2184 :         return __stdio_common_vsscanf(

  00060	94000000	 bl          __local_stdio_scanf_options
  00064	f9400008	 ldr         x8,[x0]
  00068	b2400100	 orr         x0,x8,#1
  0006c	f9401f65	 ldr         x5,[x27,#0x38]
  00070	f9401764	 ldr         x4,[x27,#0x28]
  00074	f9400f63	 ldr         x3,[x27,#0x18]
  00078	92800002	 mov         x2,#-1
  0007c	f9400761	 ldr         x1,[x27,#8]
  00080	90000008	 adrp        x8,__imp___stdio_common_vsscanf
  00084	f9400108	 ldr         x8,[x8,__imp___stdio_common_vsscanf]
  00088	d63f0100	 blr         x8
  0008c	2a0003e0	 mov         w0,w0
  00090	2a0003e0	 mov         w0,w0
  00094	910003bf	 mov         sp,fp
  00098	f94017fb	 ldr         x27,[sp,#0x28]
  0009c	f94013f6	 ldr         x22,[sp,#0x20]
  000a0	a94157f4	 ldp         x20,x21,[sp,#0x10]
  000a4	a8c37bfd	 ldp         fp,lr,[sp],#0x30
  000a8	d65f03c0	 ret

			 ENDP  ; |_vsscanf_s_l|

; Function compile flags: /Odtp /RTCsu /ZI
; File C:\Program Files (x86)\Windows Kits\10\Include\10.0.22621.0\ucrt\corecrt_stdio_config.h

	AREA	|.text$mn|, CODE, ARM64

  00000		 |__local_stdio_scanf_options| PROC

; 100  :     {

  00000		 |$LN3|
  00000	a9bd7bfd	 stp         fp,lr,[sp,#-0x30]!
  00004	a90157f4	 stp         x20,x21,[sp,#0x10]
  00008	f90013f6	 str         x22,[sp,#0x20]
  0000c	f90017fb	 str         x27,[sp,#0x28]
  00010	910003fd	 mov         fp,sp
  00014	d10303ff	 sub         sp,sp,#0xC0
  00018	910003fb	 mov         x27,sp
  0001c	90000008	 adrp        x8,|__44420885_corecrt_stdio_config@h|
  00020	91000100	 add         x0,x8,|__44420885_corecrt_stdio_config@h|
  00024	94000000	 bl          __CheckForDebuggerJustMyCode

; 101  :         static unsigned __int64 _OptionsStorage;
; 102  :         return &_OptionsStorage;

  00028	90000008	 adrp        x8,|?_OptionsStorage@?1??__local_stdio_scanf_options@@9@4_KA|
  0002c	91000100	 add         x0,x8,|?_OptionsStorage@?1??__local_stdio_scanf_options@@9@4_KA|
  00030	910003bf	 mov         sp,fp
  00034	f94017fb	 ldr         x27,[sp,#0x28]
  00038	f94013f6	 ldr         x22,[sp,#0x20]
  0003c	a94157f4	 ldp         x20,x21,[sp,#0x10]
  00040	a8c37bfd	 ldp         fp,lr,[sp],#0x30
  00044	d65f03c0	 ret

			 ENDP  ; |__local_stdio_scanf_options|

; Function compile flags: /Odtp /RTCsu /ZI
; File C:\KPO\lab01\lab01\lab01.cpp

	AREA	|.text$mn|, CODE, ARM64

  00000		 |?__empty_global_delete@@YAXPEAX_K@Z| PROC ; __empty_global_delete

  00000		 |$LN3|
  00000	a9bd7bfd	 stp         fp,lr,[sp,#-0x30]!
  00004	a90157f4	 stp         x20,x21,[sp,#0x10]
  00008	f90013f6	 str         x22,[sp,#0x20]
  0000c	f90017fb	 str         x27,[sp,#0x28]
  00010	910003fd	 mov         fp,sp
  00014	d103c3ff	 sub         sp,sp,#0xF0
  00018	910003fb	 mov         x27,sp
  0001c	b202e7f4	 movi        x20,#-0x3333333333333334
  00020	b202e7f5	 movi        x21,#-0x3333333333333334
  00024	a90057f4	 stp         x20,x21,[sp]
  00028	a90157f4	 stp         x20,x21,[sp,#0x10]
  0002c	a90257f4	 stp         x20,x21,[sp,#0x20]
  00030	f9000760	 str         x0,[x27,#8]
  00034	f9000f61	 str         x1,[x27,#0x18]
  00038	90000008	 adrp        x8,|__5FDCC71F_lab01@cpp|
  0003c	91000100	 add         x0,x8,|__5FDCC71F_lab01@cpp|
  00040	94000000	 bl          __CheckForDebuggerJustMyCode
  00044	910003bf	 mov         sp,fp
  00048	f94017fb	 ldr         x27,[sp,#0x28]
  0004c	f94013f6	 ldr         x22,[sp,#0x20]
  00050	a94157f4	 ldp         x20,x21,[sp,#0x10]
  00054	a8c37bfd	 ldp         fp,lr,[sp],#0x30
  00058	d65f03c0	 ret

			 ENDP  ; |?__empty_global_delete@@YAXPEAX_K@Z|, __empty_global_delete

; Function compile flags: /Odtp /RTCsu /ZI
; File C:\KPO\lab01\lab01\lab01.cpp

	AREA	|.text$mn|, CODE, ARM64

  00000		 |?__empty_global_delete@@YAXPEAX@Z| PROC ; __empty_global_delete

  00000		 |$LN3|
  00000	a9bd7bfd	 stp         fp,lr,[sp,#-0x30]!
  00004	a90157f4	 stp         x20,x21,[sp,#0x10]
  00008	f90013f6	 str         x22,[sp,#0x20]
  0000c	f90017fb	 str         x27,[sp,#0x28]
  00010	910003fd	 mov         fp,sp
  00014	d10383ff	 sub         sp,sp,#0xE0
  00018	910003fb	 mov         x27,sp
  0001c	b202e7f4	 movi        x20,#-0x3333333333333334
  00020	b202e7f5	 movi        x21,#-0x3333333333333334
  00024	a90057f4	 stp         x20,x21,[sp]
  00028	a90157f4	 stp         x20,x21,[sp,#0x10]
  0002c	f9000760	 str         x0,[x27,#8]
  00030	90000008	 adrp        x8,|__5FDCC71F_lab01@cpp|
  00034	91000100	 add         x0,x8,|__5FDCC71F_lab01@cpp|
  00038	94000000	 bl          __CheckForDebuggerJustMyCode
  0003c	910003bf	 mov         sp,fp
  00040	f94017fb	 ldr         x27,[sp,#0x28]
  00044	f94013f6	 ldr         x22,[sp,#0x20]
  00048	a94157f4	 ldp         x20,x21,[sp,#0x10]
  0004c	a8c37bfd	 ldp         fp,lr,[sp],#0x30
  00050	d65f03c0	 ret

			 ENDP  ; |?__empty_global_delete@@YAXPEAX@Z|, __empty_global_delete

	END
