; Listing generated by Microsoft (R) Optimizing Compiler Version 19.34.31937.0 

	TTL	C:\KPO\lab01\lab01\arm64\Debug\leap.obj
	;ARM64

	AREA	|.drectve|, DRECTVE


	AREA	|.msvcjmc|, DATA
|__60EC8903_lab01@pch| DCB 0x1
|__E2B00175_leap@cpp| DCB 0x1
|__F2484EC6_stdafx@h| DCB 0x1
|__7FAB093C_stdafx@cpp| DCB 0x1
	EXPORT	|?__empty_global_delete@@YAXPEAX@Z|	; __empty_global_delete
	EXPORT	|?__empty_global_delete@@YAXPEAX_K@Z|	; __empty_global_delete
	EXPORT	|?leap@@YA_NH@Z|			; leap
	EXPORT	|__JustMyCode_Default|
	IMPORT	|_RTC_InitBase|
	IMPORT	|_RTC_Shutdown|
	IMPORT	|__CheckForDebuggerJustMyCode|

	AREA	|.pdata|, PDATA
|$pdata$?__empty_global_delete@@YAXPEAX@Z| DCD |$LN3|
	DCD	|$unwind$?__empty_global_delete@@YAXPEAX@Z|

	AREA	|.pdata|, PDATA
|$pdata$?__empty_global_delete@@YAXPEAX_K@Z| DCD |$LN3|
	DCD	|$unwind$?__empty_global_delete@@YAXPEAX_K@Z|

	AREA	|.pdata|, PDATA
|$pdata$?leap@@YA_NH@Z| DCD |$LN5|
	DCD	|$unwind$?leap@@YA_NH@Z|

	AREA	|.rtc$TMZ|, DATA, READONLY
|_RTC_Shutdown.rtc$TMZ| DCQ |_RTC_Shutdown|, 0

	AREA	|.rtc$IMZ|, DATA, READONLY
|_RTC_InitBase.rtc$IMZ| DCQ |_RTC_InitBase|, 0

	AREA	|.xdata|, DATA
|$unwind$?leap@@YA_NH@Z| DCD 0x21e0001f
	DCD	0x40d041d0
	DCD	0xe10de3e3
	DCD	0xc4d005d2
	DCD	0xe48542c8
	;Code Words[4], Epilog Start Index[7], E[1], X[0], Function Length[31]=124 bytes
	;save_reg
	;save_reg
	;nop
	;nop
	;alloc_s
	;set_fp
	;save_reg
	;save_reg
	;save_regp
	;save_fplr_x
	;end

	AREA	|.xdata|, DATA
|$unwind$?__empty_global_delete@@YAXPEAX_K@Z| DCD 0x2aa00017
	DCD	0x42c844c8
	DCD	0xe3e340c8
	DCD	0xd2e10fe3
	DCD	0xc8c4d005
	DCD	0xe3e48542
	;Code Words[5], Epilog Start Index[10], E[1], X[0], Function Length[23]=92 bytes
	;save_regp
	;save_regp
	;save_regp
	;nop
	;nop
	;nop
	;alloc_s
	;set_fp
	;save_reg
	;save_reg
	;save_regp
	;save_fplr_x
	;end
	;nop

	AREA	|.xdata|, DATA
|$unwind$?__empty_global_delete@@YAXPEAX@Z| DCD 0x2a200015
	DCD	0x40c842c8
	DCD	0xee3e3e3
	DCD	0xd005d2e1
	DCD	0x8542c8c4
	DCD	0xe3e3e3e4
	;Code Words[5], Epilog Start Index[8], E[1], X[0], Function Length[21]=84 bytes
	;save_regp
	;save_regp
	;nop
	;nop
	;nop
	;alloc_s
	;set_fp
	;save_reg
	;save_reg
	;save_regp
	;save_fplr_x
	;end
	;nop
	;nop
	;nop
; Function compile flags: /Odt

	AREA	|.text$mn|, CODE, ARM64

  00000		 |__JustMyCode_Default| PROC
  00000	d65f03c0	 ret

			 ENDP  ; |__JustMyCode_Default|

; Function compile flags: /Odtp /RTCsu /ZI
; File C:\KPO\lab01\lab01\leap.cpp

	AREA	|.text$mn|, CODE, ARM64

  00000		 |?leap@@YA_NH@Z| PROC			; leap

; 3    : bool leap(int year) {

  00000		 |$LN5|
  00000	a9bd7bfd	 stp         fp,lr,[sp,#-0x30]!
  00004	a90157f4	 stp         x20,x21,[sp,#0x10]
  00008	f90013f6	 str         x22,[sp,#0x20]
  0000c	f90017fb	 str         x27,[sp,#0x28]
  00010	910003fd	 mov         fp,sp
  00014	d10343ff	 sub         sp,sp,#0xD0
  00018	910003fb	 mov         x27,sp
  0001c	b202e7f4	 movi        x20,#-0x3333333333333334
  00020	f90003f4	 str         x20,[sp]
  00024	f90007f4	 str         x20,[sp,#8]
  00028	b9000760	 str         w0,[x27,#4]
  0002c	90000008	 adrp        x8,|__E2B00175_leap@cpp|
  00030	91000100	 add         x0,x8,|__E2B00175_leap@cpp|
  00034	94000000	 bl          __CheckForDebuggerJustMyCode

; 4    :     if (year % 4 == 0) {

  00038	b940076a	 ldr         w10,[x27,#4]
  0003c	52800089	 mov         w9,#4
  00040	1ac90d48	 sdiv        w8,w10,w9
  00044	1b097d08	 mul         w8,w8,w9
  00048	4b080148	 sub         w8,w10,w8
  0004c	7100011f	 cmp         w8,#0
  00050	54000001	 bne         |$LN2@leap|

; 5    :         return true;

  00054	52800020	 mov         w0,#1
  00058	14000003	 b           |$LN1@leap|

; 6    :     }

  0005c	14000002	 b           |$LN3@leap|
  00060		 |$LN2@leap|

; 7    :     else return false;

  00060	52800000	 mov         w0,#0
  00064		 |$LN3@leap|
  00064		 |$LN1@leap|
  00064	910003bf	 mov         sp,fp
  00068	f94017fb	 ldr         x27,[sp,#0x28]
  0006c	f94013f6	 ldr         x22,[sp,#0x20]
  00070	a94157f4	 ldp         x20,x21,[sp,#0x10]
  00074	a8c37bfd	 ldp         fp,lr,[sp],#0x30
  00078	d65f03c0	 ret

			 ENDP  ; |?leap@@YA_NH@Z|, leap

; Function compile flags: /Odtp /RTCsu /ZI
; File C:\KPO\lab01\lab01\leap.cpp

	AREA	|.text$mn|, CODE, ARM64

  00000		 |?__empty_global_delete@@YAXPEAX_K@Z| PROC ; __empty_global_delete

  00000		 |$LN3|
  00000	a9bd7bfd	 stp         fp,lr,[sp,#-0x30]!
  00004	a90157f4	 stp         x20,x21,[sp,#0x10]
  00008	f90013f6	 str         x22,[sp,#0x20]
  0000c	f90017fb	 str         x27,[sp,#0x28]
  00010	910003fd	 mov         fp,sp
  00014	d103c3ff	 sub         sp,sp,#0xF0
  00018	910003fb	 mov         x27,sp
  0001c	b202e7f4	 movi        x20,#-0x3333333333333334
  00020	b202e7f5	 movi        x21,#-0x3333333333333334
  00024	a90057f4	 stp         x20,x21,[sp]
  00028	a90157f4	 stp         x20,x21,[sp,#0x10]
  0002c	a90257f4	 stp         x20,x21,[sp,#0x20]
  00030	f9000760	 str         x0,[x27,#8]
  00034	f9000f61	 str         x1,[x27,#0x18]
  00038	90000008	 adrp        x8,|__E2B00175_leap@cpp|
  0003c	91000100	 add         x0,x8,|__E2B00175_leap@cpp|
  00040	94000000	 bl          __CheckForDebuggerJustMyCode
  00044	910003bf	 mov         sp,fp
  00048	f94017fb	 ldr         x27,[sp,#0x28]
  0004c	f94013f6	 ldr         x22,[sp,#0x20]
  00050	a94157f4	 ldp         x20,x21,[sp,#0x10]
  00054	a8c37bfd	 ldp         fp,lr,[sp],#0x30
  00058	d65f03c0	 ret

			 ENDP  ; |?__empty_global_delete@@YAXPEAX_K@Z|, __empty_global_delete

; Function compile flags: /Odtp /RTCsu /ZI
; File C:\KPO\lab01\lab01\leap.cpp

	AREA	|.text$mn|, CODE, ARM64

  00000		 |?__empty_global_delete@@YAXPEAX@Z| PROC ; __empty_global_delete

  00000		 |$LN3|
  00000	a9bd7bfd	 stp         fp,lr,[sp,#-0x30]!
  00004	a90157f4	 stp         x20,x21,[sp,#0x10]
  00008	f90013f6	 str         x22,[sp,#0x20]
  0000c	f90017fb	 str         x27,[sp,#0x28]
  00010	910003fd	 mov         fp,sp
  00014	d10383ff	 sub         sp,sp,#0xE0
  00018	910003fb	 mov         x27,sp
  0001c	b202e7f4	 movi        x20,#-0x3333333333333334
  00020	b202e7f5	 movi        x21,#-0x3333333333333334
  00024	a90057f4	 stp         x20,x21,[sp]
  00028	a90157f4	 stp         x20,x21,[sp,#0x10]
  0002c	f9000760	 str         x0,[x27,#8]
  00030	90000008	 adrp        x8,|__E2B00175_leap@cpp|
  00034	91000100	 add         x0,x8,|__E2B00175_leap@cpp|
  00038	94000000	 bl          __CheckForDebuggerJustMyCode
  0003c	910003bf	 mov         sp,fp
  00040	f94017fb	 ldr         x27,[sp,#0x28]
  00044	f94013f6	 ldr         x22,[sp,#0x20]
  00048	a94157f4	 ldp         x20,x21,[sp,#0x10]
  0004c	a8c37bfd	 ldp         fp,lr,[sp],#0x30
  00050	d65f03c0	 ret

			 ENDP  ; |?__empty_global_delete@@YAXPEAX@Z|, __empty_global_delete

	END
