; Listing generated by Microsoft (R) Optimizing Compiler Version 19.34.31937.0 

	TTL	C:\KPO\lab01\lab01\arm64\Debug\numofday.obj
	;ARM64

	AREA	|.drectve|, DRECTVE


	AREA	|.msvcjmc|, DATA
|__60EC8903_lab01@pch| DCB 0x1
|__5369D128_numofday@cpp| DCB 0x1
|__F2484EC6_stdafx@h| DCB 0x1
|__7FAB093C_stdafx@cpp| DCB 0x1
	EXPORT	|?__empty_global_delete@@YAXPEAX@Z|	; __empty_global_delete
	EXPORT	|?__empty_global_delete@@YAXPEAX_K@Z|	; __empty_global_delete
	EXPORT	|?numOfDay@@YAHHH_N@Z|			; numOfDay
	EXPORT	|__JustMyCode_Default|
	IMPORT	|_RTC_CheckStackVars|
	IMPORT	|_RTC_InitBase|
	IMPORT	|_RTC_Shutdown|
	IMPORT	|__CheckForDebuggerJustMyCode|
	IMPORT	|__RTC_memset|

	AREA	|.pdata|, PDATA
|$pdata$?__empty_global_delete@@YAXPEAX@Z| DCD |$LN3|
	DCD	|$unwind$?__empty_global_delete@@YAXPEAX@Z|

	AREA	|.pdata|, PDATA
|$pdata$?__empty_global_delete@@YAXPEAX_K@Z| DCD |$LN3|
	DCD	|$unwind$?__empty_global_delete@@YAXPEAX_K@Z|

	AREA	|.pdata|, PDATA
|$pdata$?numOfDay@@YAHHH_N@Z| DCD |$LN8|
	DCD	|$unwind$?numOfDay@@YAHHH_N@Z|

	AREA	|.rtc$TMZ|, DATA, READONLY
|_RTC_Shutdown.rtc$TMZ| DCQ |_RTC_Shutdown|, 0

	AREA	|.rtc$IMZ|, DATA, READONLY
|_RTC_InitBase.rtc$IMZ| DCQ |_RTC_InitBase|, 0

	AREA	|.xdata|, DATA
|$unwind$?numOfDay@@YAHHH_N@Z| DCD 0x18200064
	DCD	0xd005d2e1
	DCD	0x8542c8c4
	DCD	0xe3e3e3e4
	;Code Words[3], Epilog Start Index[0], E[1], X[0], Function Length[100]=400 bytes
	;set_fp
	;save_reg
	;save_reg
	;save_regp
	;save_fplr_x
	;end
	;nop
	;nop
	;nop

	AREA	|.rdata|, DATA, READONLY
|?numOfDay@@YAHHH_N@Z$rtcName$0| DCB 0x64		; numOfDay
	DCB	0x61
	DCB	0x79
	DCB	0x73
	DCB	0x49
	DCB	0x6e
	DCB	0x4d
	DCB	0x6f
	DCB	0x6e
	DCB	0x74
	DCB	0x68
	DCB	0x73
	DCB	0x0
	%	3
|?numOfDay@@YAHHH_N@Z$rtcVarDesc| DCD 0x28		; numOfDay
	DCD	0x34
	DCQ	|?numOfDay@@YAHHH_N@Z$rtcName$0|, 0
	%	48
|?numOfDay@@YAHHH_N@Z$rtcFrameData| DCD 0x1		; numOfDay
	DCD	0x0
	DCQ	|?numOfDay@@YAHHH_N@Z$rtcVarDesc|, 0

	AREA	|.xdata|, DATA
|$unwind$?__empty_global_delete@@YAXPEAX_K@Z| DCD 0x2aa00017
	DCD	0x42c844c8
	DCD	0xe3e340c8
	DCD	0xd2e10fe3
	DCD	0xc8c4d005
	DCD	0xe3e48542
	;Code Words[5], Epilog Start Index[10], E[1], X[0], Function Length[23]=92 bytes
	;save_regp
	;save_regp
	;save_regp
	;nop
	;nop
	;nop
	;alloc_s
	;set_fp
	;save_reg
	;save_reg
	;save_regp
	;save_fplr_x
	;end
	;nop

	AREA	|.xdata|, DATA
|$unwind$?__empty_global_delete@@YAXPEAX@Z| DCD 0x2a200015
	DCD	0x40c842c8
	DCD	0xee3e3e3
	DCD	0xd005d2e1
	DCD	0x8542c8c4
	DCD	0xe3e3e3e4
	;Code Words[5], Epilog Start Index[8], E[1], X[0], Function Length[21]=84 bytes
	;save_regp
	;save_regp
	;nop
	;nop
	;nop
	;alloc_s
	;set_fp
	;save_reg
	;save_reg
	;save_regp
	;save_fplr_x
	;end
	;nop
	;nop
	;nop
; Function compile flags: /Odt

	AREA	|.text$mn|, CODE, ARM64

  00000		 |__JustMyCode_Default| PROC
  00000	d65f03c0	 ret

			 ENDP  ; |__JustMyCode_Default|

; Function compile flags: /Odtp /RTCsu /ZI
; File C:\KPO\lab01\lab01\numofday.cpp

	AREA	|.text$mn|, CODE, ARM64

  00000		 |?numOfDay@@YAHHH_N@Z| PROC		; numOfDay

; 3    : int numOfDay(int day, int month, bool leap) {

  00000		 |$LN8|
  00000	a9bd7bfd	 stp         fp,lr,[sp,#-0x30]!
  00004	a90157f4	 stp         x20,x21,[sp,#0x10]
  00008	f90013f6	 str         x22,[sp,#0x20]
  0000c	f90017fb	 str         x27,[sp,#0x28]
  00010	910003fd	 mov         fp,sp
  00014	d10503ff	 sub         sp,sp,#0x140
  00018	910003fb	 mov         x27,sp
  0001c	aa0003f4	 mov         x20,x0
  00020	aa0103f5	 mov         x21,x1
  00024	aa0203f6	 mov         x22,x2
  00028	910003e0	 mov         x0,sp
  0002c	b202e7e1	 movi        x1,#-0x3333333333333334
  00030	d2801002	 mov         x2,#0x80
  00034	94000000	 bl          __RTC_memset
  00038	aa1403e0	 mov         x0,x20
  0003c	aa1503e1	 mov         x1,x21
  00040	aa1603e2	 mov         x2,x22
  00044	b9000760	 str         w0,[x27,#4]
  00048	b9001361	 str         w1,[x27,#0x10]
  0004c	53001c48	 uxtb        w8,w2
  00050	39007368	 strb        w8,[x27,#0x1C]
  00054	90000008	 adrp        x8,|__5369D128_numofday@cpp|
  00058	91000100	 add         x0,x8,|__5369D128_numofday@cpp|
  0005c	94000000	 bl          __CheckForDebuggerJustMyCode

; 4    :     int daysInMonths[13] = { 0,31,28,31,30,31,30,31,31,30,31,30,31 };

  00060	52800008	 mov         w8,#0
  00064	b9002b68	 str         w8,[x27,#0x28]
  00068	528003e8	 mov         w8,#0x1F
  0006c	b9002f68	 str         w8,[x27,#0x2C]
  00070	52800388	 mov         w8,#0x1C
  00074	b9003368	 str         w8,[x27,#0x30]
  00078	528003e8	 mov         w8,#0x1F
  0007c	b9003768	 str         w8,[x27,#0x34]
  00080	528003c8	 mov         w8,#0x1E
  00084	b9003b68	 str         w8,[x27,#0x38]
  00088	528003e8	 mov         w8,#0x1F
  0008c	b9003f68	 str         w8,[x27,#0x3C]
  00090	528003c8	 mov         w8,#0x1E
  00094	b9004368	 str         w8,[x27,#0x40]
  00098	528003e8	 mov         w8,#0x1F
  0009c	b9004768	 str         w8,[x27,#0x44]
  000a0	528003e8	 mov         w8,#0x1F
  000a4	b9004b68	 str         w8,[x27,#0x48]
  000a8	528003c8	 mov         w8,#0x1E
  000ac	b9004f68	 str         w8,[x27,#0x4C]
  000b0	528003e8	 mov         w8,#0x1F
  000b4	b9005368	 str         w8,[x27,#0x50]
  000b8	528003c8	 mov         w8,#0x1E
  000bc	b9005768	 str         w8,[x27,#0x54]
  000c0	528003e8	 mov         w8,#0x1F
  000c4	b9005b68	 str         w8,[x27,#0x58]

; 5    :     int result = day;

  000c8	b9400768	 ldr         w8,[x27,#4]
  000cc	b9006b68	 str         w8,[x27,#0x68]

; 6    :     for (int i = 0; i < month; i++) {

  000d0	52800008	 mov         w8,#0
  000d4	b9007768	 str         w8,[x27,#0x74]
  000d8	14000004	 b           |$LN4@numOfDay|
  000dc		 |$LN2@numOfDay|
  000dc	b9407768	 ldr         w8,[x27,#0x74]
  000e0	11000508	 add         w8,w8,#1
  000e4	b9007768	 str         w8,[x27,#0x74]
  000e8		 |$LN4@numOfDay|
  000e8	b9401369	 ldr         w9,[x27,#0x10]
  000ec	b9407768	 ldr         w8,[x27,#0x74]
  000f0	6b09011f	 cmp         w8,w9
  000f4	5400000a	 bge         |$LN3@numOfDay|

; 7    :         result += daysInMonths[i];

  000f8	b9407768	 ldr         w8,[x27,#0x74]
  000fc	93407d09	 sxtw        x9,w8
  00100	d2800088	 mov         x8,#4
  00104	9b087d29	 mul         x9,x9,x8
  00108	9100a368	 add         x8,x27,#0x28
  0010c	8b090108	 add         x8,x8,x9
  00110	b9406b69	 ldr         w9,[x27,#0x68]
  00114	b9400108	 ldr         w8,[x8]
  00118	0b080128	 add         w8,w9,w8
  0011c	b9006b68	 str         w8,[x27,#0x68]

; 8    :     }

  00120	17ffffef	 b           |$LN2@numOfDay|
  00124		 |$LN3@numOfDay|

; 9    :     leap == 1 ? result++ : result + 0;

  00124	39407368	 ldrb        w8,[x27,#0x1C]
  00128	2a0803e8	 mov         w8,w8
  0012c	7100051f	 cmp         w8,#1
  00130	54000001	 bne         |$LN6@numOfDay|
  00134	b9406b68	 ldr         w8,[x27,#0x68]
  00138	b9013f68	 str         w8,[x27,#0x13C]
  0013c	b9406b68	 ldr         w8,[x27,#0x68]
  00140	11000508	 add         w8,w8,#1
  00144	b9006b68	 str         w8,[x27,#0x68]
  00148	14000003	 b           |$LN7@numOfDay|
  0014c		 |$LN6@numOfDay|
  0014c	b9406b68	 ldr         w8,[x27,#0x68]
  00150	b9013f68	 str         w8,[x27,#0x13C]
  00154		 |$LN7@numOfDay|

; 10   :     return result;

  00154	b9406b60	 ldr         w0,[x27,#0x68]
  00158	aa0003f4	 mov         x20,x0
  0015c	aa0103f5	 mov         x21,x1
  00160	aa1b03e0	 mov         x0,x27
  00164	90000008	 adrp        x8,|?numOfDay@@YAHHH_N@Z$rtcFrameData|
  00168	91000101	 add         x1,x8,|?numOfDay@@YAHHH_N@Z$rtcFrameData|
  0016c	94000000	 bl          _RTC_CheckStackVars
  00170	aa1403e0	 mov         x0,x20
  00174	aa1503e1	 mov         x1,x21
  00178	910003bf	 mov         sp,fp
  0017c	f94017fb	 ldr         x27,[sp,#0x28]
  00180	f94013f6	 ldr         x22,[sp,#0x20]
  00184	a94157f4	 ldp         x20,x21,[sp,#0x10]
  00188	a8c37bfd	 ldp         fp,lr,[sp],#0x30
  0018c	d65f03c0	 ret

			 ENDP  ; |?numOfDay@@YAHHH_N@Z|, numOfDay

; Function compile flags: /Odtp /RTCsu /ZI
; File C:\KPO\lab01\lab01\numofday.cpp

	AREA	|.text$mn|, CODE, ARM64

  00000		 |?__empty_global_delete@@YAXPEAX_K@Z| PROC ; __empty_global_delete

  00000		 |$LN3|
  00000	a9bd7bfd	 stp         fp,lr,[sp,#-0x30]!
  00004	a90157f4	 stp         x20,x21,[sp,#0x10]
  00008	f90013f6	 str         x22,[sp,#0x20]
  0000c	f90017fb	 str         x27,[sp,#0x28]
  00010	910003fd	 mov         fp,sp
  00014	d103c3ff	 sub         sp,sp,#0xF0
  00018	910003fb	 mov         x27,sp
  0001c	b202e7f4	 movi        x20,#-0x3333333333333334
  00020	b202e7f5	 movi        x21,#-0x3333333333333334
  00024	a90057f4	 stp         x20,x21,[sp]
  00028	a90157f4	 stp         x20,x21,[sp,#0x10]
  0002c	a90257f4	 stp         x20,x21,[sp,#0x20]
  00030	f9000760	 str         x0,[x27,#8]
  00034	f9000f61	 str         x1,[x27,#0x18]
  00038	90000008	 adrp        x8,|__5369D128_numofday@cpp|
  0003c	91000100	 add         x0,x8,|__5369D128_numofday@cpp|
  00040	94000000	 bl          __CheckForDebuggerJustMyCode
  00044	910003bf	 mov         sp,fp
  00048	f94017fb	 ldr         x27,[sp,#0x28]
  0004c	f94013f6	 ldr         x22,[sp,#0x20]
  00050	a94157f4	 ldp         x20,x21,[sp,#0x10]
  00054	a8c37bfd	 ldp         fp,lr,[sp],#0x30
  00058	d65f03c0	 ret

			 ENDP  ; |?__empty_global_delete@@YAXPEAX_K@Z|, __empty_global_delete

; Function compile flags: /Odtp /RTCsu /ZI
; File C:\KPO\lab01\lab01\numofday.cpp

	AREA	|.text$mn|, CODE, ARM64

  00000		 |?__empty_global_delete@@YAXPEAX@Z| PROC ; __empty_global_delete

  00000		 |$LN3|
  00000	a9bd7bfd	 stp         fp,lr,[sp,#-0x30]!
  00004	a90157f4	 stp         x20,x21,[sp,#0x10]
  00008	f90013f6	 str         x22,[sp,#0x20]
  0000c	f90017fb	 str         x27,[sp,#0x28]
  00010	910003fd	 mov         fp,sp
  00014	d10383ff	 sub         sp,sp,#0xE0
  00018	910003fb	 mov         x27,sp
  0001c	b202e7f4	 movi        x20,#-0x3333333333333334
  00020	b202e7f5	 movi        x21,#-0x3333333333333334
  00024	a90057f4	 stp         x20,x21,[sp]
  00028	a90157f4	 stp         x20,x21,[sp,#0x10]
  0002c	f9000760	 str         x0,[x27,#8]
  00030	90000008	 adrp        x8,|__5369D128_numofday@cpp|
  00034	91000100	 add         x0,x8,|__5369D128_numofday@cpp|
  00038	94000000	 bl          __CheckForDebuggerJustMyCode
  0003c	910003bf	 mov         sp,fp
  00040	f94017fb	 ldr         x27,[sp,#0x28]
  00044	f94013f6	 ldr         x22,[sp,#0x20]
  00048	a94157f4	 ldp         x20,x21,[sp,#0x10]
  0004c	a8c37bfd	 ldp         fp,lr,[sp],#0x30
  00050	d65f03c0	 ret

			 ENDP  ; |?__empty_global_delete@@YAXPEAX@Z|, __empty_global_delete

	END
