; Listing generated by Microsoft (R) Optimizing Compiler Version 19.34.31937.0 

	TTL	C:\KPO\lab01\lab01\arm64\Debug\stdafx.obj
	;ARM64

	AREA	|.drectve|, DRECTVE

	EXPORT	|__@@_PchSym_@00@UpklUozyABUozyABUzinGEUwvyftUhgwzucOlyq@4B2008FD98C1DD4| [ DATA ]

	AREA	|.bss|, NOINIT
|__@@_PchSym_@00@UpklUozyABUozyABUzinGEUwvyftUhgwzucOlyq@4B2008FD98C1DD4| % 0x4

	AREA	|.msvcjmc|, DATA
|__CD417A16_concurrencysal@h| DCB 0x1
|__18C11F8D_sal@h| DCB 0x1
|__BD42D05E_vadefs@h| DCB 0x1
|__2DC9DF70_vcruntime@h| DCB 0x1
|__C9149A6D_xkeycheck@h| DCB 0x1
|__94F3B4AE_yvals_core@h| DCB 0x1
|__7B399007_limits@h| DCB 0x1
|__1AB9F2C2_climits| DCB 0x1
|__1B0272D9_corecrt@h| DCB 0x1
|__E81B5085_vcruntime_new@h| DCB 0x1
|__130137D5_vcruntime_new_debug@h| DCB 0x1
|__935DC21B_crtdbg@h| DCB 0x1
|__95C621C9_crtdefs@h| DCB 0x1
|__FEED0ABF_use_ansi@h| DCB 0x1
|__2816668F_yvals@h| DCB 0x1
|__BB16330F_corecrt_math@h| DCB 0x1
|__3BF2A406_math@h| DCB 0x1
|__45DED006_corecrt_malloc@h| DCB 0x1
|__13F5961F_stddef@h| DCB 0x1
|__FD6DBD68_corecrt_search@h| DCB 0x1
|__E2E33A61_corecrt_wstdlib@h| DCB 0x1
|__6E5ACABA_stdlib@h| DCB 0x1
|__9E56D030_cstdlib| DCB 0x1
|__05E338F6_xtr1common| DCB 0x1
|__99FA516B_intrin0@inl@h| DCB 0x1
|__8CEB98C2_intrin0@h| DCB 0x1
|__7A7B113A_cmath| DCB 0x1
|__44420885_corecrt_stdio_config@h| DCB 0x1
|__AB601D8D_corecrt_wstdio@h| DCB 0x1
|__C1EC35D3_stdio@h| DCB 0x1
|__A651C215_cstdio| DCB 0x1
|__61CC25A1_errno@h| DCB 0x1
|__6BB4896E_vcruntime_string@h| DCB 0x1
|__E4C945B4_corecrt_memcpy_s@h| DCB 0x1
|__8EAFF484_corecrt_memory@h| DCB 0x1
|__6490AEC5_corecrt_wstring@h| DCB 0x1
|__E8295E1E_string@h| DCB 0x1
|__D2C478D0_cstring| DCB 0x1
|__EF1F6BBA_corecrt_wconio@h| DCB 0x1
|__74484FB3_corecrt_wctype@h| DCB 0x1
|__3D1D430C_corecrt_wdirect@h| DCB 0x1
|__8ECB7138_corecrt_share@h| DCB 0x1
|__DB7FEBA6_corecrt_wio@h| DCB 0x1
|__9A9F0068_corecrt_wprocess@h| DCB 0x1
|__369A9BC3_corecrt_wtime@h| DCB 0x1
|__CE789B9D_types@h| DCB 0x1
|__9901C817_stat@h| DCB 0x1
|__3FCAD62E_wchar@h| DCB 0x1
|__3CDA1446_cwchar| DCB 0x1
|__3B9D0A9D_cstddef| DCB 0x1
|__D7870C25_initializer_list| DCB 0x1
|__5E44C2A9_xstddef| DCB 0x1
|__7F1A9170_iosfwd| DCB 0x1
|__C54FBE38_stdint@h| DCB 0x1
|__2308314D_cstdint| DCB 0x1
|__87BD5CA6_type_traits| DCB 0x1
|__A95B55BB_utility| DCB 0x1
|__EE76B579___msvc_iter_core@hpp| DCB 0x1
|__A997C6C5_xutility| DCB 0x1
|__B83B7185_iterator| DCB 0x1
|__F7972D0B_share@h| DCB 0x1
|__9D384591___msvc_system_error_abi@hpp| DCB 0x1
|__3B70B6EE_cerrno| DCB 0x1
|__FA77ED4C_malloc@h| DCB 0x1
|__89766DA4_corecrt_terminate@h| DCB 0x1
|__510B0051_eh@h| DCB 0x1
|__1BEF3287_vcruntime_exception@h| DCB 0x1
|__5D994F5F_exception| DCB 0x1
|__B9985323_float@h| DCB 0x1
|__D5150992_cfloat| DCB 0x1
|__B83F831D_isa_availability@h| DCB 0x1
|__A82ED760_arm64_neon@h| DCB 0x1
|__B3F344F6_limits| DCB 0x1
|__7E4C13A5_new| DCB 0x1
|__5795C389_xatomic@h| DCB 0x1
|__C3CE3678_xmemory| DCB 0x1
|__B71DB0E4_xstring| DCB 0x1
|__D4D77502_stdexcept| DCB 0x1
|__D76B6AFE_xcall_once@h| DCB 0x1
|__80837380_xerrc@h| DCB 0x1
|__0A9237D2_time@h| DCB 0x1
|__BCC88D32_ctime| DCB 0x1
|__1F532584_xtimec@h| DCB 0x1
|__9FA33D0C_xthreads@h| DCB 0x1
|__D8C61834_atomic| DCB 0x1
|__683678DE_system_error| DCB 0x1
|__FA9853E6_vcruntime_typeinfo@h| DCB 0x1
|__D94835DC_typeinfo| DCB 0x1
|__0F5D4878_memory| DCB 0x1
|__23181F77_xfacet| DCB 0x1
|__274043E2___msvc_xlocinfo_types@hpp| DCB 0x1
|__1EC467ED_ctype@h| DCB 0x1
|__A99A25B2_cctype| DCB 0x1
|__791C33B7_locale@h| DCB 0x1
|__0DFA0CE1_clocale| DCB 0x1
|__C6C1D614_xlocinfo| DCB 0x1
|__6823C4D5_xlocale| DCB 0x1
|__FF24A107_xiosbase| DCB 0x1
|__D677CDBE_streambuf| DCB 0x1
|__F6A4A2C2_xlocnum| DCB 0x1
|__868129B3_ios| DCB 0x1
|__7B331E11_ostream| DCB 0x1
|__18E32B2B_istream| DCB 0x1
|__CBEEBCDA_iostream| DCB 0x1
|__F2484EC6_stdafx@h| DCB 0x1
|__60EC8903_lab01@pch| DCB 0x1
|__7FAB093C_stdafx@cpp| DCB 0x1
	EXPORT	|?__empty_global_delete@@YAXPEAX@Z|	; __empty_global_delete
	EXPORT	|?__empty_global_delete@@YAXPEAX_K@Z|	; __empty_global_delete
	EXPORT	|__JustMyCode_Default|
	IMPORT	|_RTC_InitBase|
	IMPORT	|_RTC_Shutdown|
	IMPORT	|__CheckForDebuggerJustMyCode|

	AREA	|.pdata|, PDATA
|$pdata$?__empty_global_delete@@YAXPEAX@Z| DCD |$LN3|
	DCD	|$unwind$?__empty_global_delete@@YAXPEAX@Z|

	AREA	|.pdata|, PDATA
|$pdata$?__empty_global_delete@@YAXPEAX_K@Z| DCD |$LN3|
	DCD	|$unwind$?__empty_global_delete@@YAXPEAX_K@Z|

	AREA	|.rtc$TMZ|, DATA, READONLY
|_RTC_Shutdown.rtc$TMZ| DCQ |_RTC_Shutdown|, 0

	AREA	|.rtc$IMZ|, DATA, READONLY
|_RTC_InitBase.rtc$IMZ| DCQ |_RTC_InitBase|, 0

	AREA	|.xdata|, DATA
|$unwind$?__empty_global_delete@@YAXPEAX_K@Z| DCD 0x2aa00017
	DCD	0x42c844c8
	DCD	0xe3e340c8
	DCD	0xd2e10fe3
	DCD	0xc8c4d005
	DCD	0xe3e48542
	;Code Words[5], Epilog Start Index[10], E[1], X[0], Function Length[23]=92 bytes
	;save_regp
	;save_regp
	;save_regp
	;nop
	;nop
	;nop
	;alloc_s
	;set_fp
	;save_reg
	;save_reg
	;save_regp
	;save_fplr_x
	;end
	;nop

	AREA	|.xdata|, DATA
|$unwind$?__empty_global_delete@@YAXPEAX@Z| DCD 0x2a200015
	DCD	0x40c842c8
	DCD	0xee3e3e3
	DCD	0xd005d2e1
	DCD	0x8542c8c4
	DCD	0xe3e3e3e4
	;Code Words[5], Epilog Start Index[8], E[1], X[0], Function Length[21]=84 bytes
	;save_regp
	;save_regp
	;nop
	;nop
	;nop
	;alloc_s
	;set_fp
	;save_reg
	;save_reg
	;save_regp
	;save_fplr_x
	;end
	;nop
	;nop
	;nop
; Function compile flags: /Odt

	AREA	|.text$mn|, CODE, ARM64

  00000		 |__JustMyCode_Default| PROC
  00000	d65f03c0	 ret

			 ENDP  ; |__JustMyCode_Default|

; Function compile flags: /Odtp /RTCsu /ZI
; File C:\KPO\lab01\lab01\stdafx.cpp

	AREA	|.text$mn|, CODE, ARM64

  00000		 |?__empty_global_delete@@YAXPEAX_K@Z| PROC ; __empty_global_delete

  00000		 |$LN3|
  00000	a9bd7bfd	 stp         fp,lr,[sp,#-0x30]!
  00004	a90157f4	 stp         x20,x21,[sp,#0x10]
  00008	f90013f6	 str         x22,[sp,#0x20]
  0000c	f90017fb	 str         x27,[sp,#0x28]
  00010	910003fd	 mov         fp,sp
  00014	d103c3ff	 sub         sp,sp,#0xF0
  00018	910003fb	 mov         x27,sp
  0001c	b202e7f4	 movi        x20,#-0x3333333333333334
  00020	b202e7f5	 movi        x21,#-0x3333333333333334
  00024	a90057f4	 stp         x20,x21,[sp]
  00028	a90157f4	 stp         x20,x21,[sp,#0x10]
  0002c	a90257f4	 stp         x20,x21,[sp,#0x20]
  00030	f9000760	 str         x0,[x27,#8]
  00034	f9000f61	 str         x1,[x27,#0x18]
  00038	90000008	 adrp        x8,|__7FAB093C_stdafx@cpp|
  0003c	91000100	 add         x0,x8,|__7FAB093C_stdafx@cpp|
  00040	94000000	 bl          __CheckForDebuggerJustMyCode
  00044	910003bf	 mov         sp,fp
  00048	f94017fb	 ldr         x27,[sp,#0x28]
  0004c	f94013f6	 ldr         x22,[sp,#0x20]
  00050	a94157f4	 ldp         x20,x21,[sp,#0x10]
  00054	a8c37bfd	 ldp         fp,lr,[sp],#0x30
  00058	d65f03c0	 ret

			 ENDP  ; |?__empty_global_delete@@YAXPEAX_K@Z|, __empty_global_delete

; Function compile flags: /Odtp /RTCsu /ZI
; File C:\KPO\lab01\lab01\stdafx.cpp

	AREA	|.text$mn|, CODE, ARM64

  00000		 |?__empty_global_delete@@YAXPEAX@Z| PROC ; __empty_global_delete

  00000		 |$LN3|
  00000	a9bd7bfd	 stp         fp,lr,[sp,#-0x30]!
  00004	a90157f4	 stp         x20,x21,[sp,#0x10]
  00008	f90013f6	 str         x22,[sp,#0x20]
  0000c	f90017fb	 str         x27,[sp,#0x28]
  00010	910003fd	 mov         fp,sp
  00014	d10383ff	 sub         sp,sp,#0xE0
  00018	910003fb	 mov         x27,sp
  0001c	b202e7f4	 movi        x20,#-0x3333333333333334
  00020	b202e7f5	 movi        x21,#-0x3333333333333334
  00024	a90057f4	 stp         x20,x21,[sp]
  00028	a90157f4	 stp         x20,x21,[sp,#0x10]
  0002c	f9000760	 str         x0,[x27,#8]
  00030	90000008	 adrp        x8,|__7FAB093C_stdafx@cpp|
  00034	91000100	 add         x0,x8,|__7FAB093C_stdafx@cpp|
  00038	94000000	 bl          __CheckForDebuggerJustMyCode
  0003c	910003bf	 mov         sp,fp
  00040	f94017fb	 ldr         x27,[sp,#0x28]
  00044	f94013f6	 ldr         x22,[sp,#0x20]
  00048	a94157f4	 ldp         x20,x21,[sp,#0x10]
  0004c	a8c37bfd	 ldp         fp,lr,[sp],#0x30
  00050	d65f03c0	 ret

			 ENDP  ; |?__empty_global_delete@@YAXPEAX@Z|, __empty_global_delete

	END
